
softwares/hello/output/hello.merl:     file format elf32-littleriscv


Disassembly of section .init:

20000000 <_start>:
20000000:	00000297          	auipc	t0,0x0
20000004:	10028293          	addi	t0,t0,256 # 20000100 <_stext>
20000008:	30529073          	csrw	mtvec,t0
2000000c:	f0000197          	auipc	gp,0xf0000
20000010:	ff418193          	addi	gp,gp,-12 # 10000000 <mcause_trap_table>
20000014:	f0001117          	auipc	sp,0xf0001
20000018:	fec10113          	addi	sp,sp,-20 # 10001000 <__stack_top>
2000001c:	00010433          	add	s0,sp,zero
20000020:	0c90006f          	j	200008e8 <main>

Disassembly of section .text:

20000100 <_stext>:
20000100:	f8010113          	addi	sp,sp,-128
20000104:	00000013          	nop
20000108:	00112223          	sw	ra,4(sp)
2000010c:	00212423          	sw	sp,8(sp)
20000110:	00312623          	sw	gp,12(sp)
20000114:	00412823          	sw	tp,16(sp)
20000118:	00512a23          	sw	t0,20(sp)
2000011c:	00612c23          	sw	t1,24(sp)
20000120:	00712e23          	sw	t2,28(sp)
20000124:	02812023          	sw	s0,32(sp)
20000128:	02912223          	sw	s1,36(sp)
2000012c:	02a12423          	sw	a0,40(sp)
20000130:	02b12623          	sw	a1,44(sp)
20000134:	02c12823          	sw	a2,48(sp)
20000138:	02d12a23          	sw	a3,52(sp)
2000013c:	02e12c23          	sw	a4,56(sp)
20000140:	02f12e23          	sw	a5,60(sp)
20000144:	05012023          	sw	a6,64(sp)
20000148:	05112223          	sw	a7,68(sp)
2000014c:	05212423          	sw	s2,72(sp)
20000150:	05312623          	sw	s3,76(sp)
20000154:	05412823          	sw	s4,80(sp)
20000158:	05512a23          	sw	s5,84(sp)
2000015c:	05612c23          	sw	s6,88(sp)
20000160:	05712e23          	sw	s7,92(sp)
20000164:	07812023          	sw	s8,96(sp)
20000168:	07912223          	sw	s9,100(sp)
2000016c:	07a12423          	sw	s10,104(sp)
20000170:	07b12623          	sw	s11,108(sp)
20000174:	07c12823          	sw	t3,112(sp)
20000178:	07d12a23          	sw	t4,116(sp)
2000017c:	07e12c23          	sw	t5,120(sp)
20000180:	07f12e23          	sw	t6,124(sp)
20000184:	34202573          	csrr	a0,mcause
20000188:	341025f3          	csrr	a1,mepc
2000018c:	00010613          	mv	a2,sp
20000190:	6ac000ef          	jal	ra,2000083c <handle_trap>
20000194:	34151073          	csrw	mepc,a0
20000198:	00412083          	lw	ra,4(sp)
2000019c:	00812103          	lw	sp,8(sp)
200001a0:	00c12183          	lw	gp,12(sp)
200001a4:	01012203          	lw	tp,16(sp)
200001a8:	01412283          	lw	t0,20(sp)
200001ac:	01812303          	lw	t1,24(sp)
200001b0:	01c12383          	lw	t2,28(sp)
200001b4:	02012403          	lw	s0,32(sp)
200001b8:	02412483          	lw	s1,36(sp)
200001bc:	02812503          	lw	a0,40(sp)
200001c0:	02c12583          	lw	a1,44(sp)
200001c4:	03012603          	lw	a2,48(sp)
200001c8:	03412683          	lw	a3,52(sp)
200001cc:	03812703          	lw	a4,56(sp)
200001d0:	03c12783          	lw	a5,60(sp)
200001d4:	04012803          	lw	a6,64(sp)
200001d8:	04412883          	lw	a7,68(sp)
200001dc:	04812903          	lw	s2,72(sp)
200001e0:	04c12983          	lw	s3,76(sp)
200001e4:	05012a03          	lw	s4,80(sp)
200001e8:	05412a83          	lw	s5,84(sp)
200001ec:	05812b03          	lw	s6,88(sp)
200001f0:	05c12b83          	lw	s7,92(sp)
200001f4:	06012c03          	lw	s8,96(sp)
200001f8:	06412c83          	lw	s9,100(sp)
200001fc:	06812d03          	lw	s10,104(sp)
20000200:	06c12d83          	lw	s11,108(sp)
20000204:	07012e03          	lw	t3,112(sp)
20000208:	07412e83          	lw	t4,116(sp)
2000020c:	07812f03          	lw	t5,120(sp)
20000210:	07c12f83          	lw	t6,124(sp)
20000214:	08010113          	addi	sp,sp,128
20000218:	30200073          	mret
2000021c:	0000                	unimp
2000021e:	0000                	unimp
20000220:	0000                	unimp
20000222:	0000                	unimp
20000224:	0000                	unimp
20000226:	0000                	unimp
20000228:	0000                	unimp
2000022a:	0000                	unimp
2000022c:	0000                	unimp
2000022e:	0000                	unimp
20000230:	0000                	unimp
20000232:	0000                	unimp
20000234:	0000                	unimp
20000236:	0000                	unimp
20000238:	0000                	unimp
2000023a:	0000                	unimp
2000023c:	0000                	unimp
2000023e:	0000                	unimp
20000240:	0000                	unimp
20000242:	0000                	unimp
20000244:	0000                	unimp
20000246:	0000                	unimp
20000248:	0000                	unimp
2000024a:	0000                	unimp
2000024c:	0000                	unimp
2000024e:	0000                	unimp
20000250:	0000                	unimp
20000252:	0000                	unimp
20000254:	0000                	unimp
20000256:	0000                	unimp
20000258:	0000                	unimp
2000025a:	0000                	unimp
2000025c:	0000                	unimp
2000025e:	0000                	unimp
20000260:	0000                	unimp
20000262:	0000                	unimp
20000264:	0000                	unimp
20000266:	0000                	unimp
20000268:	0000                	unimp
2000026a:	0000                	unimp
2000026c:	0000                	unimp
2000026e:	0000                	unimp
20000270:	0000                	unimp
20000272:	0000                	unimp
20000274:	0000                	unimp
20000276:	0000                	unimp
20000278:	0000                	unimp
2000027a:	0000                	unimp
2000027c:	0000                	unimp
2000027e:	0000                	unimp
20000280:	0000                	unimp
20000282:	0000                	unimp
20000284:	0000                	unimp
20000286:	0000                	unimp
20000288:	0000                	unimp
2000028a:	0000                	unimp
2000028c:	0000                	unimp
2000028e:	0000                	unimp
20000290:	0000                	unimp
20000292:	0000                	unimp
20000294:	0000                	unimp
20000296:	0000                	unimp
20000298:	0000                	unimp
2000029a:	0000                	unimp
2000029c:	0000                	unimp
2000029e:	0000                	unimp
200002a0:	0000                	unimp
200002a2:	0000                	unimp
200002a4:	0000                	unimp
200002a6:	0000                	unimp
200002a8:	0000                	unimp
200002aa:	0000                	unimp
200002ac:	0000                	unimp
200002ae:	0000                	unimp
200002b0:	0000                	unimp
200002b2:	0000                	unimp
200002b4:	0000                	unimp
200002b6:	0000                	unimp
200002b8:	0000                	unimp
200002ba:	0000                	unimp
200002bc:	0000                	unimp
200002be:	0000                	unimp
200002c0:	0000                	unimp
200002c2:	0000                	unimp
200002c4:	0000                	unimp
200002c6:	0000                	unimp
200002c8:	0000                	unimp
200002ca:	0000                	unimp
200002cc:	0000                	unimp
200002ce:	0000                	unimp
200002d0:	0000                	unimp
200002d2:	0000                	unimp
200002d4:	0000                	unimp
200002d6:	0000                	unimp
200002d8:	0000                	unimp
200002da:	0000                	unimp
200002dc:	0000                	unimp
200002de:	0000                	unimp
200002e0:	0000                	unimp
200002e2:	0000                	unimp
200002e4:	0000                	unimp
200002e6:	0000                	unimp
200002e8:	0000                	unimp
200002ea:	0000                	unimp
200002ec:	0000                	unimp
200002ee:	0000                	unimp
200002f0:	0000                	unimp
200002f2:	0000                	unimp
200002f4:	0000                	unimp
200002f6:	0000                	unimp
200002f8:	0000                	unimp
200002fa:	0000                	unimp
200002fc:	0000                	unimp
200002fe:	0000                	unimp
20000300:	00000013          	nop
20000304:	00000013          	nop
20000308:	00000013          	nop
2000030c:	00000013          	nop
20000310:	00000013          	nop
20000314:	00000013          	nop
20000318:	00000013          	nop

2000031c <timer_handler>:
2000031c:	40000437          	lui	s0,0x40000
20000320:	00000293          	li	t0,0
20000324:	10042823          	sw	zero,272(s0) # 40000110 <_etext+0x1ffff744>
20000328:	10b42023          	sw	a1,256(s0)
2000032c:	10542a23          	sw	t0,276(s0)
20000330:	00542023          	sw	t0,0(s0)
20000334:	30029073          	csrw	mstatus,t0
20000338:	30429073          	csrw	mie,t0
2000033c:	30200073          	mret
20000340:	0000                	unimp
20000342:	0000                	unimp
20000344:	0000                	unimp
20000346:	0000                	unimp
20000348:	0000                	unimp
2000034a:	0000                	unimp
2000034c:	0000                	unimp
2000034e:	0000                	unimp
20000350:	0000                	unimp
20000352:	0000                	unimp
20000354:	0000                	unimp
20000356:	0000                	unimp
20000358:	0000                	unimp
2000035a:	0000                	unimp
2000035c:	0000                	unimp
2000035e:	0000                	unimp
20000360:	0000                	unimp
20000362:	0000                	unimp
20000364:	0000                	unimp
20000366:	0000                	unimp
20000368:	0000                	unimp
2000036a:	0000                	unimp
2000036c:	0000                	unimp
2000036e:	0000                	unimp
20000370:	0000                	unimp
20000372:	0000                	unimp
20000374:	0000                	unimp
20000376:	0000                	unimp
20000378:	0000                	unimp
2000037a:	0000                	unimp
2000037c:	0000                	unimp
2000037e:	0000                	unimp
20000380:	0000                	unimp
20000382:	0000                	unimp
20000384:	0000                	unimp
20000386:	0000                	unimp
20000388:	0000                	unimp
2000038a:	0000                	unimp
2000038c:	0000                	unimp
2000038e:	0000                	unimp
20000390:	0000                	unimp
20000392:	0000                	unimp
20000394:	0000                	unimp
20000396:	0000                	unimp
20000398:	0000                	unimp
2000039a:	0000                	unimp
2000039c:	0000                	unimp
2000039e:	0000                	unimp
200003a0:	0000                	unimp
200003a2:	0000                	unimp
200003a4:	0000                	unimp
200003a6:	0000                	unimp
200003a8:	0000                	unimp
200003aa:	0000                	unimp
200003ac:	0000                	unimp
200003ae:	0000                	unimp
200003b0:	0000                	unimp
200003b2:	0000                	unimp
200003b4:	0000                	unimp
200003b6:	0000                	unimp
200003b8:	0000                	unimp
200003ba:	0000                	unimp
200003bc:	0000                	unimp
200003be:	0000                	unimp
200003c0:	0000                	unimp
200003c2:	0000                	unimp
200003c4:	0000                	unimp
200003c6:	0000                	unimp
200003c8:	0000                	unimp
200003ca:	0000                	unimp
200003cc:	0000                	unimp
200003ce:	0000                	unimp
200003d0:	0000                	unimp
200003d2:	0000                	unimp
200003d4:	0000                	unimp
200003d6:	0000                	unimp
200003d8:	0000                	unimp
200003da:	0000                	unimp
200003dc:	0000                	unimp
200003de:	0000                	unimp
200003e0:	0000                	unimp
200003e2:	0000                	unimp
200003e4:	0000                	unimp
200003e6:	0000                	unimp
200003e8:	0000                	unimp
200003ea:	0000                	unimp
200003ec:	0000                	unimp
200003ee:	0000                	unimp
200003f0:	0000                	unimp
200003f2:	0000                	unimp
200003f4:	0000                	unimp
200003f6:	0000                	unimp
200003f8:	0000                	unimp
200003fa:	0000                	unimp
200003fc:	0000                	unimp
200003fe:	0000                	unimp
20000400:	0000                	unimp
20000402:	0000                	unimp

20000404 <delay>:
20000404:	fd010113          	addi	sp,sp,-48
20000408:	02812623          	sw	s0,44(sp)
2000040c:	03010413          	addi	s0,sp,48
20000410:	fca42e23          	sw	a0,-36(s0)
20000414:	400007b7          	lui	a5,0x40000
20000418:	10c78793          	addi	a5,a5,268 # 4000010c <_etext+0x1ffff740>
2000041c:	fef42623          	sw	a5,-20(s0)
20000420:	fec42783          	lw	a5,-20(s0)
20000424:	fdc42703          	lw	a4,-36(s0)
20000428:	00e7a023          	sw	a4,0(a5)
2000042c:	40000437          	lui	s0,0x40000
20000430:	10042823          	sw	zero,272(s0) # 40000110 <_etext+0x1ffff744>
20000434:	08000293          	li	t0,128
20000438:	00800313          	li	t1,8
2000043c:	30031073          	csrw	mstatus,t1
20000440:	30429073          	csrw	mie,t0
20000444:	000205b7          	lui	a1,0x20
20000448:	00258593          	addi	a1,a1,2 # 20002 <mcause_trap_table-0xffdfffe>
2000044c:	10b42023          	sw	a1,256(s0)
20000450:	00100293          	li	t0,1
20000454:	10542a23          	sw	t0,276(s0)
20000458:	00542023          	sw	t0,0(s0)
2000045c:	200002b7          	lui	t0,0x20000
20000460:	30028293          	addi	t0,t0,768 # 20000300 <_stext+0x200>
20000464:	30529073          	csrw	mtvec,t0
20000468:	10500073          	wfi
2000046c:	00000013          	nop
20000470:	02c12403          	lw	s0,44(sp)
20000474:	03010113          	addi	sp,sp,48
20000478:	00008067          	ret

2000047c <Set_Speed>:
2000047c:	fd010113          	addi	sp,sp,-48
20000480:	02812623          	sw	s0,44(sp)
20000484:	03010413          	addi	s0,sp,48
20000488:	fca42e23          	sw	a0,-36(s0)
2000048c:	400807b7          	lui	a5,0x40080
20000490:	01478793          	addi	a5,a5,20 # 40080014 <_etext+0x2007f648>
20000494:	fef42623          	sw	a5,-20(s0)
20000498:	fec42783          	lw	a5,-20(s0)
2000049c:	fdc42703          	lw	a4,-36(s0)
200004a0:	00e7a023          	sw	a4,0(a5)
200004a4:	00000013          	nop
200004a8:	02c12403          	lw	s0,44(sp)
200004ac:	03010113          	addi	sp,sp,48
200004b0:	00008067          	ret

200004b4 <Spi_Write>:
200004b4:	fd010113          	addi	sp,sp,-48
200004b8:	02812623          	sw	s0,44(sp)
200004bc:	03010413          	addi	s0,sp,48
200004c0:	00050793          	mv	a5,a0
200004c4:	fcb42c23          	sw	a1,-40(s0)
200004c8:	fcf40fa3          	sb	a5,-33(s0)
200004cc:	400807b7          	lui	a5,0x40080
200004d0:	fef42623          	sw	a5,-20(s0)
200004d4:	fdf44703          	lbu	a4,-33(s0)
200004d8:	fec42783          	lw	a5,-20(s0)
200004dc:	00e7a023          	sw	a4,0(a5) # 40080000 <_etext+0x2007f634>
200004e0:	400807b7          	lui	a5,0x40080
200004e4:	01878793          	addi	a5,a5,24 # 40080018 <_etext+0x2007f64c>
200004e8:	fef42423          	sw	a5,-24(s0)
200004ec:	fe842783          	lw	a5,-24(s0)
200004f0:	fd842703          	lw	a4,-40(s0)
200004f4:	00e7a023          	sw	a4,0(a5)
200004f8:	000027b7          	lui	a5,0x2
200004fc:	92078793          	addi	a5,a5,-1760 # 1920 <mcause_trap_table-0xfffe6e0>
20000500:	fef42223          	sw	a5,-28(s0)
20000504:	400807b7          	lui	a5,0x40080
20000508:	01078793          	addi	a5,a5,16 # 40080010 <_etext+0x2007f644>
2000050c:	fef42023          	sw	a5,-32(s0)
20000510:	fe042783          	lw	a5,-32(s0)
20000514:	fe442703          	lw	a4,-28(s0)
20000518:	00e7a023          	sw	a4,0(a5)
2000051c:	00000013          	nop
20000520:	02c12403          	lw	s0,44(sp)
20000524:	03010113          	addi	sp,sp,48
20000528:	00008067          	ret

2000052c <Spi_Read>:
2000052c:	fd010113          	addi	sp,sp,-48
20000530:	02812623          	sw	s0,44(sp)
20000534:	03010413          	addi	s0,sp,48
20000538:	fca42e23          	sw	a0,-36(s0)
2000053c:	000027b7          	lui	a5,0x2
20000540:	92078793          	addi	a5,a5,-1760 # 1920 <mcause_trap_table-0xfffe6e0>
20000544:	fef42623          	sw	a5,-20(s0)
20000548:	400807b7          	lui	a5,0x40080
2000054c:	01078793          	addi	a5,a5,16 # 40080010 <_etext+0x2007f644>
20000550:	fef42423          	sw	a5,-24(s0)
20000554:	fe842783          	lw	a5,-24(s0)
20000558:	fec42703          	lw	a4,-20(s0)
2000055c:	00e7a023          	sw	a4,0(a5)
20000560:	400807b7          	lui	a5,0x40080
20000564:	01878793          	addi	a5,a5,24 # 40080018 <_etext+0x2007f64c>
20000568:	fef42223          	sw	a5,-28(s0)
2000056c:	fe442783          	lw	a5,-28(s0)
20000570:	fdc42703          	lw	a4,-36(s0)
20000574:	00e7a023          	sw	a4,0(a5)
20000578:	00000013          	nop
2000057c:	02c12403          	lw	s0,44(sp)
20000580:	03010113          	addi	sp,sp,48
20000584:	00008067          	ret

20000588 <Set_Baud_Rate>:
20000588:	fd010113          	addi	sp,sp,-48
2000058c:	02112623          	sw	ra,44(sp)
20000590:	02812423          	sw	s0,40(sp)
20000594:	03010413          	addi	s0,sp,48
20000598:	fca42e23          	sw	a0,-36(s0)
2000059c:	fe042623          	sw	zero,-20(s0)
200005a0:	01000793          	li	a5,16
200005a4:	fef42423          	sw	a5,-24(s0)
200005a8:	fdc42783          	lw	a5,-36(s0)
200005ac:	00479713          	slli	a4,a5,0x4
200005b0:	013137b7          	lui	a5,0x1313
200005b4:	00070593          	mv	a1,a4
200005b8:	d0078513          	addi	a0,a5,-768 # 1312d00 <mcause_trap_table-0xeced300>
200005bc:	35c000ef          	jal	ra,20000918 <__divsi3>
200005c0:	00050793          	mv	a5,a0
200005c4:	fef42623          	sw	a5,-20(s0)
200005c8:	400607b7          	lui	a5,0x40060
200005cc:	00c78793          	addi	a5,a5,12 # 4006000c <_etext+0x2005f640>
200005d0:	fef42223          	sw	a5,-28(s0)
200005d4:	fe842783          	lw	a5,-24(s0)
200005d8:	fec42703          	lw	a4,-20(s0)
200005dc:	00f717b3          	sll	a5,a4,a5
200005e0:	00078713          	mv	a4,a5
200005e4:	fe442783          	lw	a5,-28(s0)
200005e8:	00e7a023          	sw	a4,0(a5)
200005ec:	00000013          	nop
200005f0:	02c12083          	lw	ra,44(sp)
200005f4:	02812403          	lw	s0,40(sp)
200005f8:	03010113          	addi	sp,sp,48
200005fc:	00008067          	ret

20000600 <Uart_Tx_Rdy>:
20000600:	fd010113          	addi	sp,sp,-48
20000604:	02812623          	sw	s0,44(sp)
20000608:	03010413          	addi	s0,sp,48
2000060c:	00050793          	mv	a5,a0
20000610:	fcf40fa3          	sb	a5,-33(s0)
20000614:	400607b7          	lui	a5,0x40060
20000618:	01878793          	addi	a5,a5,24 # 40060018 <_etext+0x2005f64c>
2000061c:	fef42623          	sw	a5,-20(s0)
20000620:	fec42783          	lw	a5,-20(s0)
20000624:	fdf44703          	lbu	a4,-33(s0)
20000628:	00e78023          	sb	a4,0(a5)
2000062c:	40060437          	lui	s0,0x40060
20000630:	00100293          	li	t0,1
20000634:	00542623          	sw	t0,12(s0) # 4006000c <_etext+0x2005f640>
20000638:	00542223          	sw	t0,4(s0)
2000063c:	00100293          	li	t0,1
20000640:	00200393          	li	t2,2
20000644:	00729333          	sll	t1,t0,t2
20000648:	00642223          	sw	t1,4(s0)
2000064c:	00000293          	li	t0,0
20000650:	00500393          	li	t2,5
20000654:	00729433          	sll	s0,t0,t2
20000658:	00542e23          	sw	t0,28(s0)
2000065c:	00400393          	li	t2,4
20000660:	007292b3          	sll	t0,t0,t2
20000664:	00542623          	sw	t0,12(s0)
20000668:	00000013          	nop
2000066c:	02c12403          	lw	s0,44(sp)
20000670:	03010113          	addi	sp,sp,48
20000674:	00008067          	ret

20000678 <Uart_Rx_Rdy>:
20000678:	ff010113          	addi	sp,sp,-16
2000067c:	00812623          	sw	s0,12(sp)
20000680:	01010413          	addi	s0,sp,16
20000684:	00100293          	li	t0,1
20000688:	40060437          	lui	s0,0x40060
2000068c:	00529333          	sll	t1,t0,t0
20000690:	00642623          	sw	t1,12(s0) # 4006000c <_etext+0x2005f640>
20000694:	00529333          	sll	t1,t0,t0
20000698:	00642223          	sw	t1,4(s0)
2000069c:	00300393          	li	t2,3
200006a0:	00729333          	sll	t1,t0,t2
200006a4:	00642223          	sw	t1,4(s0)
200006a8:	00400393          	li	t2,4
200006ac:	00729333          	sll	t1,t0,t2
200006b0:	00642223          	sw	t1,4(s0)
200006b4:	00500393          	li	t2,5
200006b8:	00729333          	sll	t1,t0,t2
200006bc:	00642223          	sw	t1,4(s0)
200006c0:	00600393          	li	t2,6
200006c4:	00729333          	sll	t1,t0,t2
200006c8:	00642223          	sw	t1,4(s0)
200006cc:	00500393          	li	t2,5
200006d0:	007292b3          	sll	t0,t0,t2
200006d4:	00542623          	sw	t0,12(s0)
200006d8:	00000013          	nop
200006dc:	00078513          	mv	a0,a5
200006e0:	00c12403          	lw	s0,12(sp)
200006e4:	01010113          	addi	sp,sp,16
200006e8:	00008067          	ret

200006ec <Uart_Interrupt_Routine>:
200006ec:	fe010113          	addi	sp,sp,-32
200006f0:	00812e23          	sw	s0,28(sp)
200006f4:	02010413          	addi	s0,sp,32
200006f8:	400607b7          	lui	a5,0x40060
200006fc:	fef42623          	sw	a5,-20(s0)
20000700:	fe042423          	sw	zero,-24(s0)
20000704:	400607b7          	lui	a5,0x40060
20000708:	00478793          	addi	a5,a5,4 # 40060004 <_etext+0x2005f638>
2000070c:	fef42223          	sw	a5,-28(s0)
20000710:	fe442783          	lw	a5,-28(s0)
20000714:	40060737          	lui	a4,0x40060
20000718:	00e7a023          	sw	a4,0(a5)
2000071c:	fec42783          	lw	a5,-20(s0)
20000720:	0007a783          	lw	a5,0(a5)
20000724:	0017f793          	andi	a5,a5,1
20000728:	00078863          	beqz	a5,20000738 <Uart_Interrupt_Routine+0x4c>
2000072c:	40060437          	lui	s0,0x40060
20000730:	00000293          	li	t0,0
20000734:	00542223          	sw	t0,4(s0) # 40060004 <_etext+0x2005f638>
20000738:	00000013          	nop
2000073c:	01c12403          	lw	s0,28(sp)
20000740:	02010113          	addi	sp,sp,32
20000744:	00008067          	ret

20000748 <PWM_DUTYCYCLE>:
20000748:	fd010113          	addi	sp,sp,-48
2000074c:	02812623          	sw	s0,44(sp)
20000750:	03010413          	addi	s0,sp,48
20000754:	fca42e23          	sw	a0,-36(s0)
20000758:	fcb42c23          	sw	a1,-40(s0)
2000075c:	fdc42703          	lw	a4,-36(s0)
20000760:	00100793          	li	a5,1
20000764:	04f71063          	bne	a4,a5,200007a4 <PWM_DUTYCYCLE+0x5c>
20000768:	400b07b7          	lui	a5,0x400b0
2000076c:	00c78793          	addi	a5,a5,12 # 400b000c <_etext+0x200af640>
20000770:	fef42423          	sw	a5,-24(s0)
20000774:	fe842783          	lw	a5,-24(s0)
20000778:	fd842703          	lw	a4,-40(s0)
2000077c:	00e7a023          	sw	a4,0(a5)
20000780:	400b0437          	lui	s0,0x400b0
20000784:	01400313          	li	t1,20
20000788:	00642023          	sw	t1,0(s0) # 400b0000 <_etext+0x200af634>
2000078c:	00010337          	lui	t1,0x10
20000790:	fff30313          	addi	t1,t1,-1 # ffff <mcause_trap_table-0xfff0001>
20000794:	00642223          	sw	t1,4(s0)
20000798:	00a00313          	li	t1,10
2000079c:	00642423          	sw	t1,8(s0)
200007a0:	03c0006f          	j	200007dc <PWM_DUTYCYCLE+0x94>
200007a4:	400b07b7          	lui	a5,0x400b0
200007a8:	01c78793          	addi	a5,a5,28 # 400b001c <_etext+0x200af650>
200007ac:	fef42623          	sw	a5,-20(s0)
200007b0:	fec42783          	lw	a5,-20(s0)
200007b4:	fd842703          	lw	a4,-40(s0)
200007b8:	00e7a023          	sw	a4,0(a5)
200007bc:	400b0437          	lui	s0,0x400b0
200007c0:	01400313          	li	t1,20
200007c4:	00642823          	sw	t1,16(s0) # 400b0010 <_etext+0x200af644>
200007c8:	00010337          	lui	t1,0x10
200007cc:	f3830313          	addi	t1,t1,-200 # ff38 <mcause_trap_table-0xfff00c8>
200007d0:	00642a23          	sw	t1,20(s0)
200007d4:	09900313          	li	t1,153
200007d8:	00642c23          	sw	t1,24(s0)
200007dc:	00000013          	nop
200007e0:	02c12403          	lw	s0,44(sp)
200007e4:	03010113          	addi	sp,sp,48
200007e8:	00008067          	ret

200007ec <extract_ie_code>:
200007ec:	fd010113          	addi	sp,sp,-48
200007f0:	02812623          	sw	s0,44(sp)
200007f4:	03010413          	addi	s0,sp,48
200007f8:	fca42e23          	sw	a0,-36(s0)
200007fc:	fdc42703          	lw	a4,-36(s0)
20000800:	800007b7          	lui	a5,0x80000
20000804:	fff7c793          	not	a5,a5
20000808:	00f777b3          	and	a5,a4,a5
2000080c:	fef42623          	sw	a5,-20(s0)
20000810:	fec42783          	lw	a5,-20(s0)
20000814:	00078513          	mv	a0,a5
20000818:	02c12403          	lw	s0,44(sp)
2000081c:	03010113          	addi	sp,sp,48
20000820:	00008067          	ret

20000824 <default_handler>:
20000824:	fe010113          	addi	sp,sp,-32
20000828:	00812e23          	sw	s0,28(sp)
2000082c:	02010413          	addi	s0,sp,32
20000830:	fea42623          	sw	a0,-20(s0)
20000834:	feb42423          	sw	a1,-24(s0)
20000838:	0000006f          	j	20000838 <default_handler+0x14>

2000083c <handle_trap>:
2000083c:	fd010113          	addi	sp,sp,-48
20000840:	02112623          	sw	ra,44(sp)
20000844:	02812423          	sw	s0,40(sp)
20000848:	03010413          	addi	s0,sp,48
2000084c:	fca42e23          	sw	a0,-36(s0)
20000850:	fcb42c23          	sw	a1,-40(s0)
20000854:	fe042623          	sw	zero,-20(s0)
20000858:	fe042423          	sw	zero,-24(s0)
2000085c:	01f00793          	li	a5,31
20000860:	fef42423          	sw	a5,-24(s0)
20000864:	fe842783          	lw	a5,-24(s0)
20000868:	00100713          	li	a4,1
2000086c:	00f717b3          	sll	a5,a4,a5
20000870:	00078713          	mv	a4,a5
20000874:	fdc42783          	lw	a5,-36(s0)
20000878:	00f777b3          	and	a5,a4,a5
2000087c:	02078a63          	beqz	a5,200008b0 <handle_trap+0x74>
20000880:	fdc42503          	lw	a0,-36(s0)
20000884:	f69ff0ef          	jal	ra,200007ec <extract_ie_code>
20000888:	fea42623          	sw	a0,-20(s0)
2000088c:	00818713          	addi	a4,gp,8 # 10000008 <mcause_interrupt_table>
20000890:	fec42783          	lw	a5,-20(s0)
20000894:	00279793          	slli	a5,a5,0x2
20000898:	00f707b3          	add	a5,a4,a5
2000089c:	0007a783          	lw	a5,0(a5) # 80000000 <_etext+0x5ffff634>
200008a0:	fd842583          	lw	a1,-40(s0)
200008a4:	fdc42503          	lw	a0,-36(s0)
200008a8:	000780e7          	jalr	a5
200008ac:	0240006f          	j	200008d0 <handle_trap+0x94>
200008b0:	00018713          	mv	a4,gp
200008b4:	fdc42783          	lw	a5,-36(s0)
200008b8:	00279793          	slli	a5,a5,0x2
200008bc:	00f707b3          	add	a5,a4,a5
200008c0:	0007a783          	lw	a5,0(a5)
200008c4:	fd842583          	lw	a1,-40(s0)
200008c8:	fdc42503          	lw	a0,-36(s0)
200008cc:	000780e7          	jalr	a5
200008d0:	fd842783          	lw	a5,-40(s0)
200008d4:	00078513          	mv	a0,a5
200008d8:	02c12083          	lw	ra,44(sp)
200008dc:	02812403          	lw	s0,40(sp)
200008e0:	03010113          	addi	sp,sp,48
200008e4:	00008067          	ret

200008e8 <main>:
200008e8:	ff010113          	addi	sp,sp,-16
200008ec:	00112623          	sw	ra,12(sp)
200008f0:	00812423          	sw	s0,8(sp)
200008f4:	01010413          	addi	s0,sp,16
200008f8:	00500513          	li	a0,5
200008fc:	b09ff0ef          	jal	ra,20000404 <delay>
20000900:	00000793          	li	a5,0
20000904:	00078513          	mv	a0,a5
20000908:	00c12083          	lw	ra,12(sp)
2000090c:	00812403          	lw	s0,8(sp)
20000910:	01010113          	addi	sp,sp,16
20000914:	00008067          	ret

20000918 <__divsi3>:
20000918:	06054063          	bltz	a0,20000978 <__umodsi3+0x10>
2000091c:	0605c663          	bltz	a1,20000988 <__umodsi3+0x20>

20000920 <__udivsi3>:
20000920:	00058613          	mv	a2,a1
20000924:	00050593          	mv	a1,a0
20000928:	fff00513          	li	a0,-1
2000092c:	02060c63          	beqz	a2,20000964 <__udivsi3+0x44>
20000930:	00100693          	li	a3,1
20000934:	00b67a63          	bgeu	a2,a1,20000948 <__udivsi3+0x28>
20000938:	00c05863          	blez	a2,20000948 <__udivsi3+0x28>
2000093c:	00161613          	slli	a2,a2,0x1
20000940:	00169693          	slli	a3,a3,0x1
20000944:	feb66ae3          	bltu	a2,a1,20000938 <__udivsi3+0x18>
20000948:	00000513          	li	a0,0
2000094c:	00c5e663          	bltu	a1,a2,20000958 <__udivsi3+0x38>
20000950:	40c585b3          	sub	a1,a1,a2
20000954:	00d56533          	or	a0,a0,a3
20000958:	0016d693          	srli	a3,a3,0x1
2000095c:	00165613          	srli	a2,a2,0x1
20000960:	fe0696e3          	bnez	a3,2000094c <__udivsi3+0x2c>
20000964:	00008067          	ret

20000968 <__umodsi3>:
20000968:	00008293          	mv	t0,ra
2000096c:	fb5ff0ef          	jal	ra,20000920 <__udivsi3>
20000970:	00058513          	mv	a0,a1
20000974:	00028067          	jr	t0
20000978:	40a00533          	neg	a0,a0
2000097c:	00b04863          	bgtz	a1,2000098c <__umodsi3+0x24>
20000980:	40b005b3          	neg	a1,a1
20000984:	f9dff06f          	j	20000920 <__udivsi3>
20000988:	40b005b3          	neg	a1,a1
2000098c:	00008293          	mv	t0,ra
20000990:	f91ff0ef          	jal	ra,20000920 <__udivsi3>
20000994:	40a00533          	neg	a0,a0
20000998:	00028067          	jr	t0

2000099c <__modsi3>:
2000099c:	00008293          	mv	t0,ra
200009a0:	0005ca63          	bltz	a1,200009b4 <__modsi3+0x18>
200009a4:	00054c63          	bltz	a0,200009bc <__modsi3+0x20>
200009a8:	f79ff0ef          	jal	ra,20000920 <__udivsi3>
200009ac:	00058513          	mv	a0,a1
200009b0:	00028067          	jr	t0
200009b4:	40b005b3          	neg	a1,a1
200009b8:	fe0558e3          	bgez	a0,200009a8 <__modsi3+0xc>
200009bc:	40a00533          	neg	a0,a0
200009c0:	f61ff0ef          	jal	ra,20000920 <__udivsi3>
200009c4:	40b00533          	neg	a0,a1
200009c8:	00028067          	jr	t0

Disassembly of section .eh_frame:

200009cc <__global_pointer$+0x100009cc>:
200009cc:	0014                	0x14
200009ce:	0000                	unimp
200009d0:	0000                	unimp
200009d2:	0000                	unimp
200009d4:	00527a03          	0x527a03
200009d8:	7c01                	lui	s8,0xfffe0
200009da:	0101                	addi	sp,sp,0
200009dc:	07020d1b          	0x7020d1b
200009e0:	0001                	nop
200009e2:	0000                	unimp
200009e4:	0010                	0x10
200009e6:	0000                	unimp
200009e8:	001c                	0x1c
200009ea:	0000                	unimp
200009ec:	f620                	fsw	fs0,104(a2)
200009ee:	ffff                	0xffff
200009f0:	0018                	0x18
200009f2:	0000                	unimp
200009f4:	0000                	unimp
200009f6:	0000                	unimp

Disassembly of section .sbss:

10000000 <mcause_trap_table>:
10000000:	0000                	unimp
10000002:	0000                	unimp
10000004:	0000                	unimp
10000006:	0000                	unimp

10000008 <mcause_interrupt_table>:
10000008:	0000                	unimp
1000000a:	0000                	unimp
1000000c:	0000                	unimp
1000000e:	0000                	unimp

Disassembly of section .riscv.attributes:

00000000 <.riscv.attributes>:
   0:	2441                	jal	280 <mcause_trap_table-0xffffd80>
   2:	0000                	unimp
   4:	7200                	flw	fs0,32(a2)
   6:	7369                	lui	t1,0xffffa
   8:	01007663          	bgeu	zero,a6,14 <mcause_trap_table-0xfffffec>
   c:	001a                	c.slli	zero,0x6
   e:	0000                	unimp
  10:	1004                	addi	s1,sp,32
  12:	7205                	lui	tp,0xfffe1
  14:	3376                	fld	ft6,376(sp)
  16:	6932                	flw	fs2,12(sp)
  18:	7032                	flw	ft0,44(sp)
  1a:	5f30                	lw	a2,120(a4)
  1c:	326d                	jal	fffff9c6 <_etext+0xdfffeffa>
  1e:	3070                	fld	fa2,224(s0)
  20:	0800                	addi	s0,sp,16
  22:	0a01                	addi	s4,s4,0
  24:	0b              	Address 0x0000000000000024 is out of bounds.


Disassembly of section .comment:

00000000 <.comment>:
   0:	3a434347          	fmsub.d	ft6,ft6,ft4,ft7,rmm
   4:	2820                	fld	fs0,80(s0)
   6:	29554e47          	fmsub.s	ft8,fa0,fs5,ft5,rmm
   a:	3120                	fld	fs0,96(a0)
   c:	2e30                	fld	fa2,88(a2)
   e:	2e32                	fld	ft8,264(sp)
  10:	0030                	addi	a2,sp,8

Disassembly of section .debug_line:

00000000 <.debug_line>:
   0:	0165                	addi	sp,sp,25
   2:	0000                	unimp
   4:	00460003          	lb	zero,4(a2)
   8:	0000                	unimp
   a:	0101                	addi	sp,sp,0
   c:	000d0efb          	0xd0efb
  10:	0101                	addi	sp,sp,0
  12:	0101                	addi	sp,sp,0
  14:	0000                	unimp
  16:	0100                	addi	s0,sp,128
  18:	0000                	unimp
  1a:	2e01                	jal	32a <mcause_trap_table-0xffffcd6>
  1c:	2f2e                	fld	ft10,200(sp)
  1e:	2e2e                	fld	ft8,200(sp)
  20:	2f2e2e2f          	0x2f2e2e2f
  24:	2e2e                	fld	ft8,200(sp)
  26:	7369722f          	0x7369722f
  2a:	672d7663          	bgeu	s10,s2,696 <mcause_trap_table-0xffff96a>
  2e:	6c2f6363          	bltu	t5,sp,6f4 <mcause_trap_table-0xffff90c>
  32:	6269                	lui	tp,0x1a
  34:	2f636367          	0x2f636367
  38:	666e6f63          	bltu	t3,t1,6b6 <mcause_trap_table-0xffff94a>
  3c:	6769                	lui	a4,0x1a
  3e:	7369722f          	0x7369722f
  42:	00007663          	bgeu	zero,zero,4e <mcause_trap_table-0xfffffb2>
  46:	6964                	flw	fs1,84(a0)
  48:	2e76                	fld	ft8,344(sp)
  4a:	00010053          	fadd.s	ft0,ft2,ft0,rne
  4e:	0000                	unimp
  50:	0500                	addi	s0,sp,640
  52:	1802                	slli	a6,a6,0x20
  54:	0009                	c.nop	2
  56:	0320                	addi	s0,sp,392
  58:	00c4                	addi	s1,sp,68
  5a:	0301                	addi	t1,t1,0
  5c:	0901                	addi	s2,s2,0
  5e:	0004                	0x4
  60:	0301                	addi	t1,t1,0
  62:	0904                	addi	s1,sp,144
  64:	0004                	0x4
  66:	0301                	addi	t1,t1,0
  68:	0901                	addi	s2,s2,0
  6a:	0004                	0x4
  6c:	0301                	addi	t1,t1,0
  6e:	0901                	addi	s2,s2,0
  70:	0004                	0x4
  72:	0301                	addi	t1,t1,0
  74:	0901                	addi	s2,s2,0
  76:	0004                	0x4
  78:	0301                	addi	t1,t1,0
  7a:	0901                	addi	s2,s2,0
  7c:	0004                	0x4
  7e:	0301                	addi	t1,t1,0
  80:	0901                	addi	s2,s2,0
  82:	0004                	0x4
  84:	0301                	addi	t1,t1,0
  86:	0902                	c.slli64	s2
  88:	0004                	0x4
  8a:	0301                	addi	t1,t1,0
  8c:	0901                	addi	s2,s2,0
  8e:	0004                	0x4
  90:	0301                	addi	t1,t1,0
  92:	0901                	addi	s2,s2,0
  94:	0004                	0x4
  96:	0301                	addi	t1,t1,0
  98:	0901                	addi	s2,s2,0
  9a:	0004                	0x4
  9c:	0301                	addi	t1,t1,0
  9e:	0902                	c.slli64	s2
  a0:	0004                	0x4
  a2:	0301                	addi	t1,t1,0
  a4:	0902                	c.slli64	s2
  a6:	0004                	0x4
  a8:	0301                	addi	t1,t1,0
  aa:	0901                	addi	s2,s2,0
  ac:	0004                	0x4
  ae:	0301                	addi	t1,t1,0
  b0:	0901                	addi	s2,s2,0
  b2:	0004                	0x4
  b4:	0301                	addi	t1,t1,0
  b6:	0902                	c.slli64	s2
  b8:	0004                	0x4
  ba:	0301                	addi	t1,t1,0
  bc:	0901                	addi	s2,s2,0
  be:	0004                	0x4
  c0:	0301                	addi	t1,t1,0
  c2:	0901                	addi	s2,s2,0
  c4:	0004                	0x4
  c6:	0301                	addi	t1,t1,0
  c8:	0902                	c.slli64	s2
  ca:	0004                	0x4
  cc:	0301                	addi	t1,t1,0
  ce:	0905                	addi	s2,s2,1
  d0:	0004                	0x4
  d2:	0301                	addi	t1,t1,0
  d4:	0901                	addi	s2,s2,0
  d6:	0004                	0x4
  d8:	0301                	addi	t1,t1,0
  da:	0901                	addi	s2,s2,0
  dc:	0004                	0x4
  de:	0301                	addi	t1,t1,0
  e0:	0901                	addi	s2,s2,0
  e2:	0004                	0x4
  e4:	0301                	addi	t1,t1,0
  e6:	0905                	addi	s2,s2,1
  e8:	0004                	0x4
  ea:	0301                	addi	t1,t1,0
  ec:	0902                	c.slli64	s2
  ee:	0004                	0x4
  f0:	0301                	addi	t1,t1,0
  f2:	0902                	c.slli64	s2
  f4:	0004                	0x4
  f6:	0301                	addi	t1,t1,0
  f8:	0901                	addi	s2,s2,0
  fa:	0004                	0x4
  fc:	0301                	addi	t1,t1,0
  fe:	0902                	c.slli64	s2
 100:	0004                	0x4
 102:	0301                	addi	t1,t1,0
 104:	0902                	c.slli64	s2
 106:	0004                	0x4
 108:	0301                	addi	t1,t1,0
 10a:	0901                	addi	s2,s2,0
 10c:	0004                	0x4
 10e:	0301                	addi	t1,t1,0
 110:	0901                	addi	s2,s2,0
 112:	0004                	0x4
 114:	0301                	addi	t1,t1,0
 116:	0901                	addi	s2,s2,0
 118:	0004                	0x4
 11a:	0301                	addi	t1,t1,0
 11c:	0904                	addi	s1,sp,144
 11e:	0004                	0x4
 120:	0301                	addi	t1,t1,0
 122:	0901                	addi	s2,s2,0
 124:	0004                	0x4
 126:	0301                	addi	t1,t1,0
 128:	0901                	addi	s2,s2,0
 12a:	0004                	0x4
 12c:	0301                	addi	t1,t1,0
 12e:	0902                	c.slli64	s2
 130:	0004                	0x4
 132:	0301                	addi	t1,t1,0
 134:	0901                	addi	s2,s2,0
 136:	0004                	0x4
 138:	0301                	addi	t1,t1,0
 13a:	0901                	addi	s2,s2,0
 13c:	0004                	0x4
 13e:	0301                	addi	t1,t1,0
 140:	0902                	c.slli64	s2
 142:	0004                	0x4
 144:	0301                	addi	t1,t1,0
 146:	0901                	addi	s2,s2,0
 148:	0004                	0x4
 14a:	0301                	addi	t1,t1,0
 14c:	0902                	c.slli64	s2
 14e:	0004                	0x4
 150:	0301                	addi	t1,t1,0
 152:	0901                	addi	s2,s2,0
 154:	0004                	0x4
 156:	0301                	addi	t1,t1,0
 158:	0901                	addi	s2,s2,0
 15a:	0004                	0x4
 15c:	0301                	addi	t1,t1,0
 15e:	0901                	addi	s2,s2,0
 160:	0004                	0x4
 162:	0901                	addi	s2,s2,0
 164:	0004                	0x4
 166:	0100                	addi	s0,sp,128
 168:	01              	Address 0x0000000000000168 is out of bounds.


Disassembly of section .debug_info:

00000000 <.debug_info>:
   0:	0022                	c.slli	zero,0x8
   2:	0000                	unimp
   4:	0002                	c.slli64	zero
   6:	0000                	unimp
   8:	0000                	unimp
   a:	0104                	addi	s1,sp,128
   c:	0000                	unimp
   e:	0000                	unimp
  10:	0918                	addi	a4,sp,144
  12:	2000                	fld	fs0,0(s0)
  14:	09cc                	addi	a1,sp,212
  16:	2000                	fld	fs0,0(s0)
  18:	0000                	unimp
  1a:	0000                	unimp
  1c:	0030                	addi	a2,sp,8
  1e:	0000                	unimp
  20:	0000009b          	0x9b
  24:	8001                	c.srli64	s0

Disassembly of section .debug_abbrev:

00000000 <.debug_abbrev>:
   0:	1101                	addi	sp,sp,-32
   2:	1000                	addi	s0,sp,32
   4:	1106                	slli	sp,sp,0x21
   6:	1201                	addi	tp,tp,-32
   8:	0301                	addi	t1,t1,0
   a:	1b0e                	slli	s6,s6,0x23
   c:	250e                	fld	fa0,192(sp)
   e:	130e                	slli	t1,t1,0x23
  10:	0005                	c.nop	1
  12:	0000                	unimp

Disassembly of section .debug_aranges:

00000000 <.debug_aranges>:
   0:	001c                	0x1c
   2:	0000                	unimp
   4:	0002                	c.slli64	zero
   6:	0000                	unimp
   8:	0000                	unimp
   a:	0004                	0x4
   c:	0000                	unimp
   e:	0000                	unimp
  10:	0918                	addi	a4,sp,144
  12:	2000                	fld	fs0,0(s0)
  14:	00b4                	addi	a3,sp,72
  16:	0000                	unimp
  18:	0000                	unimp
  1a:	0000                	unimp
  1c:	0000                	unimp
  1e:	0000                	unimp

Disassembly of section .debug_str:

00000000 <.debug_str>:
   0:	2e2e                	fld	ft8,200(sp)
   2:	2f2e2e2f          	0x2f2e2e2f
   6:	2e2e                	fld	ft8,200(sp)
   8:	2f2e2e2f          	0x2f2e2e2f
   c:	6972                	flw	fs2,28(sp)
   e:	2d766373          	csrrsi	t1,0x2d7,12
  12:	2f636367          	0x2f636367
  16:	696c                	flw	fa1,84(a0)
  18:	6762                	flw	fa4,24(sp)
  1a:	632f6363          	bltu	t5,s2,640 <mcause_trap_table-0xffff9c0>
  1e:	69666e6f          	jal	t3,666b4 <mcause_trap_table-0xff9994c>
  22:	69722f67          	0x69722f67
  26:	2f766373          	csrrsi	t1,0x2f7,12
  2a:	6964                	flw	fs1,84(a0)
  2c:	2e76                	fld	ft8,344(sp)
  2e:	682f0053          	0x682f0053
  32:	2f656d6f          	jal	s10,56328 <mcause_trap_table-0xffa9cd8>
  36:	656c6177          	0x656c6177
  3a:	6465                	lui	s0,0x19
  3c:	636f442f          	0x636f442f
  40:	6d75                	lui	s10,0x1d
  42:	6e65                	lui	t3,0x19
  44:	7374                	flw	fa3,100(a4)
  46:	7465532f          	0x7465532f
  4a:	7075                	c.lui	zero,0xffffd
  4c:	69722f73          	csrrs	t5,0x697,tp
  50:	2d766373          	csrrsi	t1,0x2d7,12
  54:	2d756e67          	0x2d756e67
  58:	6f74                	flw	fa3,92(a4)
  5a:	68636c6f          	jal	s8,366e0 <mcause_trap_table-0xffc9920>
  5e:	6961                	lui	s2,0x18
  60:	2f6e                	fld	ft10,216(sp)
  62:	7562                	flw	fa0,56(sp)
  64:	6c69                	lui	s8,0x1a
  66:	2f64                	fld	fs1,216(a4)
  68:	7562                	flw	fa0,56(sp)
  6a:	6c69                	lui	s8,0x1a
  6c:	2d64                	fld	fs1,216(a0)
  6e:	2d636367          	0x2d636367
  72:	656e                	flw	fa0,216(sp)
  74:	62696c77          	0x62696c77
  78:	732d                	lui	t1,0xfffeb
  7a:	6174                	flw	fa3,68(a0)
  7c:	2f326567          	0x2f326567
  80:	6972                	flw	fs2,28(sp)
  82:	33766373          	csrrsi	t1,mhpmevent23,12
  86:	2d32                	fld	fs10,264(sp)
  88:	6e75                	lui	t3,0x1d
  8a:	776f6e6b          	0x776f6e6b
  8e:	2d6e                	fld	fs10,216(sp)
  90:	6c65                	lui	s8,0x19
  92:	2f66                	fld	ft10,88(sp)
  94:	696c                	flw	fa1,84(a0)
  96:	6762                	flw	fa4,24(sp)
  98:	47006363          	bltu	zero,a6,4fe <mcause_trap_table-0xffffb02>
  9c:	554e                	lw	a0,240(sp)
  9e:	4120                	lw	s0,64(a0)
  a0:	2e322053          	0x2e322053
  a4:	          	snez	a0,zero
