
softwares/hello/output/hello.merl:     file format elf32-littleriscv


Disassembly of section .init:

00000000 <_start>:
   0:	00000297          	auipc	t0,0x0
   4:	02828293          	addi	t0,t0,40 # 28 <_stext>
   8:	30529073          	csrw	mtvec,t0
   c:	10000197          	auipc	gp,0x10000
  10:	ff418193          	addi	gp,gp,-12 # 10000000 <isr_table>
  14:	10001117          	auipc	sp,0x10001
  18:	fec10113          	addi	sp,sp,-20 # 10001000 <__stack_top>
  1c:	00010433          	add	s0,sp,zero
  20:	7440006f          	j	764 <main>

Disassembly of section .text:

00000028 <_stext>:
  28:	f8010113          	addi	sp,sp,-128
  2c:	00000013          	nop
  30:	00112223          	sw	ra,4(sp)
  34:	00212423          	sw	sp,8(sp)
  38:	00312623          	sw	gp,12(sp)
  3c:	00412823          	sw	tp,16(sp)
  40:	00512a23          	sw	t0,20(sp)
  44:	00612c23          	sw	t1,24(sp)
  48:	00712e23          	sw	t2,28(sp)
  4c:	02812023          	sw	s0,32(sp)
  50:	02912223          	sw	s1,36(sp)
  54:	02a12423          	sw	a0,40(sp)
  58:	02b12623          	sw	a1,44(sp)
  5c:	02c12823          	sw	a2,48(sp)
  60:	02d12a23          	sw	a3,52(sp)
  64:	02e12c23          	sw	a4,56(sp)
  68:	02f12e23          	sw	a5,60(sp)
  6c:	05012023          	sw	a6,64(sp)
  70:	05112223          	sw	a7,68(sp)
  74:	05212423          	sw	s2,72(sp)
  78:	05312623          	sw	s3,76(sp)
  7c:	05412823          	sw	s4,80(sp)
  80:	05512a23          	sw	s5,84(sp)
  84:	05612c23          	sw	s6,88(sp)
  88:	05712e23          	sw	s7,92(sp)
  8c:	07812023          	sw	s8,96(sp)
  90:	07912223          	sw	s9,100(sp)
  94:	07a12423          	sw	s10,104(sp)
  98:	07b12623          	sw	s11,108(sp)
  9c:	07c12823          	sw	t3,112(sp)
  a0:	07d12a23          	sw	t4,116(sp)
  a4:	07e12c23          	sw	t5,120(sp)
  a8:	07f12e23          	sw	t6,124(sp)
  ac:	34202573          	csrr	a0,mcause
  b0:	341025f3          	csrr	a1,mepc
  b4:	00010613          	mv	a2,sp
  b8:	600000ef          	jal	ra,6b8 <handle_trap>
  bc:	34151073          	csrw	mepc,a0
  c0:	00412083          	lw	ra,4(sp)
  c4:	00812103          	lw	sp,8(sp)
  c8:	00c12183          	lw	gp,12(sp)
  cc:	01012203          	lw	tp,16(sp)
  d0:	01412283          	lw	t0,20(sp)
  d4:	01812303          	lw	t1,24(sp)
  d8:	01c12383          	lw	t2,28(sp)
  dc:	02012403          	lw	s0,32(sp)
  e0:	02412483          	lw	s1,36(sp)
  e4:	02812503          	lw	a0,40(sp)
  e8:	02c12583          	lw	a1,44(sp)
  ec:	03012603          	lw	a2,48(sp)
  f0:	03412683          	lw	a3,52(sp)
  f4:	03812703          	lw	a4,56(sp)
  f8:	03c12783          	lw	a5,60(sp)
  fc:	04012803          	lw	a6,64(sp)
 100:	04412883          	lw	a7,68(sp)
 104:	04812903          	lw	s2,72(sp)
 108:	04c12983          	lw	s3,76(sp)
 10c:	05012a03          	lw	s4,80(sp)
 110:	05412a83          	lw	s5,84(sp)
 114:	05812b03          	lw	s6,88(sp)
 118:	05c12b83          	lw	s7,92(sp)
 11c:	06012c03          	lw	s8,96(sp)
 120:	06412c83          	lw	s9,100(sp)
 124:	06812d03          	lw	s10,104(sp)
 128:	06c12d83          	lw	s11,108(sp)
 12c:	07012e03          	lw	t3,112(sp)
 130:	07412e83          	lw	t4,116(sp)
 134:	07812f03          	lw	t5,120(sp)
 138:	07c12f83          	lw	t6,124(sp)
 13c:	08010113          	addi	sp,sp,128
 140:	30200073          	mret
 144:	0000                	unimp
 146:	0000                	unimp

00000148 <write_gpio>:
 148:	fd010113          	addi	sp,sp,-48
 14c:	02812623          	sw	s0,44(sp)
 150:	03010413          	addi	s0,sp,48
 154:	fca42e23          	sw	a0,-36(s0)
 158:	fcb42c23          	sw	a1,-40(s0)
 15c:	400c07b7          	lui	a5,0x400c0
 160:	01c78793          	addi	a5,a5,28 # 400c001c <__stack_top+0x300bf01c>
 164:	fef42623          	sw	a5,-20(s0)
 168:	fdc42783          	lw	a5,-36(s0)
 16c:	fd842703          	lw	a4,-40(s0)
 170:	00f717b3          	sll	a5,a4,a5
 174:	00078713          	mv	a4,a5
 178:	fec42783          	lw	a5,-20(s0)
 17c:	00e7a023          	sw	a4,0(a5)
 180:	400c07b7          	lui	a5,0x400c0
 184:	01078793          	addi	a5,a5,16 # 400c0010 <__stack_top+0x300bf010>
 188:	fef42423          	sw	a5,-24(s0)
 18c:	fdc42783          	lw	a5,-36(s0)
 190:	fd842703          	lw	a4,-40(s0)
 194:	00f717b3          	sll	a5,a4,a5
 198:	00078713          	mv	a4,a5
 19c:	fe842783          	lw	a5,-24(s0)
 1a0:	00e7a023          	sw	a4,0(a5)
 1a4:	00000013          	nop
 1a8:	02c12403          	lw	s0,44(sp)
 1ac:	03010113          	addi	sp,sp,48
 1b0:	00008067          	ret

000001b4 <read_word>:
 1b4:	fe010113          	addi	sp,sp,-32
 1b8:	00812e23          	sw	s0,28(sp)
 1bc:	02010413          	addi	s0,sp,32
 1c0:	fea42623          	sw	a0,-20(s0)
 1c4:	fec42783          	lw	a5,-20(s0)
 1c8:	0007a783          	lw	a5,0(a5)
 1cc:	00078513          	mv	a0,a5
 1d0:	01c12403          	lw	s0,28(sp)
 1d4:	02010113          	addi	sp,sp,32
 1d8:	00008067          	ret

000001dc <write_word>:
 1dc:	fe010113          	addi	sp,sp,-32
 1e0:	00812e23          	sw	s0,28(sp)
 1e4:	02010413          	addi	s0,sp,32
 1e8:	fea42623          	sw	a0,-20(s0)
 1ec:	feb42423          	sw	a1,-24(s0)
 1f0:	fec42783          	lw	a5,-20(s0)
 1f4:	fe842703          	lw	a4,-24(s0)
 1f8:	00e7a023          	sw	a4,0(a5)
 1fc:	00000013          	nop
 200:	01c12403          	lw	s0,28(sp)
 204:	02010113          	addi	sp,sp,32
 208:	00008067          	ret

0000020c <interrupt_complete>:
 20c:	fd010113          	addi	sp,sp,-48
 210:	02812623          	sw	s0,44(sp)
 214:	03010413          	addi	s0,sp,48
 218:	fca42e23          	sw	a0,-36(s0)
 21c:	400607b7          	lui	a5,0x40060
 220:	01078793          	addi	a5,a5,16 # 40060010 <__stack_top+0x3005f010>
 224:	fef42623          	sw	a5,-20(s0)
 228:	fec42783          	lw	a5,-20(s0)
 22c:	fdc42703          	lw	a4,-36(s0)
 230:	00e7a023          	sw	a4,0(a5)
 234:	07018713          	addi	a4,gp,112 # 10000070 <hart0_interrupt_matrix>
 238:	fdc42783          	lw	a5,-36(s0)
 23c:	00479793          	slli	a5,a5,0x4
 240:	00f707b3          	add	a5,a4,a5
 244:	00200713          	li	a4,2
 248:	00e7a423          	sw	a4,8(a5)
 24c:	07018713          	addi	a4,gp,112 # 10000070 <hart0_interrupt_matrix>
 250:	fdc42783          	lw	a5,-36(s0)
 254:	00479793          	slli	a5,a5,0x4
 258:	00f707b3          	add	a5,a4,a5
 25c:	00c7a783          	lw	a5,12(a5)
 260:	00178713          	addi	a4,a5,1
 264:	07018693          	addi	a3,gp,112 # 10000070 <hart0_interrupt_matrix>
 268:	fdc42783          	lw	a5,-36(s0)
 26c:	00479793          	slli	a5,a5,0x4
 270:	00f687b3          	add	a5,a3,a5
 274:	00e7a623          	sw	a4,12(a5)
 278:	00000013          	nop
 27c:	02c12403          	lw	s0,44(sp)
 280:	03010113          	addi	sp,sp,48
 284:	00008067          	ret

00000288 <configure_interrupt_pin>:
 288:	fe010113          	addi	sp,sp,-32
 28c:	00812e23          	sw	s0,28(sp)
 290:	02010413          	addi	s0,sp,32
 294:	fea42623          	sw	a0,-20(s0)
 298:	00000013          	nop
 29c:	01c12403          	lw	s0,28(sp)
 2a0:	02010113          	addi	sp,sp,32
 2a4:	00008067          	ret

000002a8 <interrupt_claim_request>:
 2a8:	fe010113          	addi	sp,sp,-32
 2ac:	00812e23          	sw	s0,28(sp)
 2b0:	02010413          	addi	s0,sp,32
 2b4:	fe042623          	sw	zero,-20(s0)
 2b8:	400607b7          	lui	a5,0x40060
 2bc:	01078793          	addi	a5,a5,16 # 40060010 <__stack_top+0x3005f010>
 2c0:	fef42623          	sw	a5,-20(s0)
 2c4:	fec42783          	lw	a5,-20(s0)
 2c8:	0007a783          	lw	a5,0(a5)
 2cc:	fef42423          	sw	a5,-24(s0)
 2d0:	fe842783          	lw	a5,-24(s0)
 2d4:	00078513          	mv	a0,a5
 2d8:	01c12403          	lw	s0,28(sp)
 2dc:	02010113          	addi	sp,sp,32
 2e0:	00008067          	ret

000002e4 <mach_plic_handler>:
 2e4:	fd010113          	addi	sp,sp,-48
 2e8:	02112623          	sw	ra,44(sp)
 2ec:	02812423          	sw	s0,40(sp)
 2f0:	03010413          	addi	s0,sp,48
 2f4:	fca42e23          	sw	a0,-36(s0)
 2f8:	fcb42c23          	sw	a1,-40(s0)
 2fc:	fadff0ef          	jal	ra,2a8 <interrupt_claim_request>
 300:	fea42623          	sw	a0,-20(s0)
 304:	07018713          	addi	a4,gp,112 # 10000070 <hart0_interrupt_matrix>
 308:	fec42783          	lw	a5,-20(s0)
 30c:	00479793          	slli	a5,a5,0x4
 310:	00f707b3          	add	a5,a4,a5
 314:	00100713          	li	a4,1
 318:	00e7a423          	sw	a4,8(a5)
 31c:	00018713          	mv	a4,gp
 320:	fec42783          	lw	a5,-20(s0)
 324:	00279793          	slli	a5,a5,0x2
 328:	00f707b3          	add	a5,a4,a5
 32c:	0007a783          	lw	a5,0(a5)
 330:	fec42503          	lw	a0,-20(s0)
 334:	000780e7          	jalr	a5
 338:	fec42503          	lw	a0,-20(s0)
 33c:	ed1ff0ef          	jal	ra,20c <interrupt_complete>
 340:	00000013          	nop
 344:	02c12083          	lw	ra,44(sp)
 348:	02812403          	lw	s0,40(sp)
 34c:	03010113          	addi	sp,sp,48
 350:	00008067          	ret

00000354 <interrupt_enable>:
 354:	fd010113          	addi	sp,sp,-48
 358:	02812623          	sw	s0,44(sp)
 35c:	03010413          	addi	s0,sp,48
 360:	fca42e23          	sw	a0,-36(s0)
 364:	fe0407a3          	sb	zero,-17(s0)
 368:	fdc42783          	lw	a5,-36(s0)
 36c:	0037d713          	srli	a4,a5,0x3
 370:	400527b7          	lui	a5,0x40052
 374:	00f707b3          	add	a5,a4,a5
 378:	fef42423          	sw	a5,-24(s0)
 37c:	fe842783          	lw	a5,-24(s0)
 380:	0007c783          	lbu	a5,0(a5) # 40052000 <__stack_top+0x30051000>
 384:	fef407a3          	sb	a5,-17(s0)
 388:	fdc42783          	lw	a5,-36(s0)
 38c:	0077f793          	andi	a5,a5,7
 390:	00100713          	li	a4,1
 394:	00f717b3          	sll	a5,a4,a5
 398:	01879713          	slli	a4,a5,0x18
 39c:	41875713          	srai	a4,a4,0x18
 3a0:	fef40783          	lb	a5,-17(s0)
 3a4:	00f767b3          	or	a5,a4,a5
 3a8:	01879793          	slli	a5,a5,0x18
 3ac:	4187d793          	srai	a5,a5,0x18
 3b0:	fef403a3          	sb	a5,-25(s0)
 3b4:	fe842783          	lw	a5,-24(s0)
 3b8:	fe744703          	lbu	a4,-25(s0)
 3bc:	00e78023          	sb	a4,0(a5)
 3c0:	00000013          	nop
 3c4:	02c12403          	lw	s0,44(sp)
 3c8:	03010113          	addi	sp,sp,48
 3cc:	00008067          	ret

000003d0 <interrupt_disable>:
 3d0:	fd010113          	addi	sp,sp,-48
 3d4:	02812623          	sw	s0,44(sp)
 3d8:	03010413          	addi	s0,sp,48
 3dc:	fca42e23          	sw	a0,-36(s0)
 3e0:	fe042623          	sw	zero,-20(s0)
 3e4:	fe0405a3          	sb	zero,-21(s0)
 3e8:	fdc42783          	lw	a5,-36(s0)
 3ec:	0037d713          	srli	a4,a5,0x3
 3f0:	400527b7          	lui	a5,0x40052
 3f4:	00f707b3          	add	a5,a4,a5
 3f8:	fef42623          	sw	a5,-20(s0)
 3fc:	fec42783          	lw	a5,-20(s0)
 400:	0007c783          	lbu	a5,0(a5) # 40052000 <__stack_top+0x30051000>
 404:	fef405a3          	sb	a5,-21(s0)
 408:	fdc42783          	lw	a5,-36(s0)
 40c:	0077f793          	andi	a5,a5,7
 410:	00100713          	li	a4,1
 414:	00f717b3          	sll	a5,a4,a5
 418:	01879793          	slli	a5,a5,0x18
 41c:	4187d793          	srai	a5,a5,0x18
 420:	fff7c793          	not	a5,a5
 424:	01879713          	slli	a4,a5,0x18
 428:	41875713          	srai	a4,a4,0x18
 42c:	feb40783          	lb	a5,-21(s0)
 430:	00f777b3          	and	a5,a4,a5
 434:	01879793          	slli	a5,a5,0x18
 438:	4187d793          	srai	a5,a5,0x18
 43c:	fef40523          	sb	a5,-22(s0)
 440:	fec42783          	lw	a5,-20(s0)
 444:	fea44703          	lbu	a4,-22(s0)
 448:	00e78023          	sb	a4,0(a5)
 44c:	07018713          	addi	a4,gp,112 # 10000070 <hart0_interrupt_matrix>
 450:	fdc42783          	lw	a5,-36(s0)
 454:	00479793          	slli	a5,a5,0x4
 458:	00f707b3          	add	a5,a4,a5
 45c:	0007a423          	sw	zero,8(a5)
 460:	00000013          	nop
 464:	02c12403          	lw	s0,44(sp)
 468:	03010113          	addi	sp,sp,48
 46c:	00008067          	ret

00000470 <set_interrupt_threshold>:
 470:	fd010113          	addi	sp,sp,-48
 474:	02812623          	sw	s0,44(sp)
 478:	03010413          	addi	s0,sp,48
 47c:	fca42e23          	sw	a0,-36(s0)
 480:	fe042623          	sw	zero,-20(s0)
 484:	400607b7          	lui	a5,0x40060
 488:	fef42623          	sw	a5,-20(s0)
 48c:	fec42783          	lw	a5,-20(s0)
 490:	fdc42703          	lw	a4,-36(s0)
 494:	00e7a023          	sw	a4,0(a5) # 40060000 <__stack_top+0x3005f000>
 498:	00000013          	nop
 49c:	02c12403          	lw	s0,44(sp)
 4a0:	03010113          	addi	sp,sp,48
 4a4:	00008067          	ret

000004a8 <set_interrupt_priority>:
 4a8:	fd010113          	addi	sp,sp,-48
 4ac:	02812623          	sw	s0,44(sp)
 4b0:	03010413          	addi	s0,sp,48
 4b4:	fca42e23          	sw	a0,-36(s0)
 4b8:	fcb42c23          	sw	a1,-40(s0)
 4bc:	fd842783          	lw	a5,-40(s0)
 4c0:	00279713          	slli	a4,a5,0x2
 4c4:	400507b7          	lui	a5,0x40050
 4c8:	00f707b3          	add	a5,a4,a5
 4cc:	fef42623          	sw	a5,-20(s0)
 4d0:	fec42783          	lw	a5,-20(s0)
 4d4:	fdc42703          	lw	a4,-36(s0)
 4d8:	00e7a023          	sw	a4,0(a5) # 40050000 <__stack_top+0x3004f000>
 4dc:	00000013          	nop
 4e0:	02c12403          	lw	s0,44(sp)
 4e4:	03010113          	addi	sp,sp,48
 4e8:	00008067          	ret

000004ec <isr_default>:
 4ec:	fe010113          	addi	sp,sp,-32
 4f0:	00812e23          	sw	s0,28(sp)
 4f4:	02010413          	addi	s0,sp,32
 4f8:	fea42623          	sw	a0,-20(s0)
 4fc:	00000013          	nop
 500:	01c12403          	lw	s0,28(sp)
 504:	02010113          	addi	sp,sp,32
 508:	00008067          	ret

0000050c <plic_init>:
 50c:	fe010113          	addi	sp,sp,-32
 510:	00112e23          	sw	ra,28(sp)
 514:	00812c23          	sw	s0,24(sp)
 518:	02010413          	addi	s0,sp,32
 51c:	fe042623          	sw	zero,-20(s0)
 520:	23818793          	addi	a5,gp,568 # 10000238 <mcause_interrupt_table>
 524:	00000717          	auipc	a4,0x0
 528:	dc070713          	addi	a4,a4,-576 # 2e4 <mach_plic_handler>
 52c:	00e7a023          	sw	a4,0(a5)
 530:	07018793          	addi	a5,gp,112 # 10000070 <hart0_interrupt_matrix>
 534:	0007a423          	sw	zero,8(a5)
 538:	07018793          	addi	a5,gp,112 # 10000070 <hart0_interrupt_matrix>
 53c:	0007a023          	sw	zero,0(a5)
 540:	07018793          	addi	a5,gp,112 # 10000070 <hart0_interrupt_matrix>
 544:	0007a223          	sw	zero,4(a5)
 548:	07018793          	addi	a5,gp,112 # 10000070 <hart0_interrupt_matrix>
 54c:	0007a623          	sw	zero,12(a5)
 550:	00100793          	li	a5,1
 554:	fef42623          	sw	a5,-20(s0)
 558:	0980006f          	j	5f0 <plic_init+0xe4>
 55c:	07018713          	addi	a4,gp,112 # 10000070 <hart0_interrupt_matrix>
 560:	fec42783          	lw	a5,-20(s0)
 564:	00479793          	slli	a5,a5,0x4
 568:	00f707b3          	add	a5,a4,a5
 56c:	0007a423          	sw	zero,8(a5)
 570:	07018713          	addi	a4,gp,112 # 10000070 <hart0_interrupt_matrix>
 574:	fec42783          	lw	a5,-20(s0)
 578:	00479793          	slli	a5,a5,0x4
 57c:	00f707b3          	add	a5,a4,a5
 580:	fec42703          	lw	a4,-20(s0)
 584:	00e7a023          	sw	a4,0(a5)
 588:	07018713          	addi	a4,gp,112 # 10000070 <hart0_interrupt_matrix>
 58c:	fec42783          	lw	a5,-20(s0)
 590:	00479793          	slli	a5,a5,0x4
 594:	00f707b3          	add	a5,a4,a5
 598:	00200713          	li	a4,2
 59c:	00e7a223          	sw	a4,4(a5)
 5a0:	07018713          	addi	a4,gp,112 # 10000070 <hart0_interrupt_matrix>
 5a4:	fec42783          	lw	a5,-20(s0)
 5a8:	00479793          	slli	a5,a5,0x4
 5ac:	00f707b3          	add	a5,a4,a5
 5b0:	0007a623          	sw	zero,12(a5)
 5b4:	fec42503          	lw	a0,-20(s0)
 5b8:	e19ff0ef          	jal	ra,3d0 <interrupt_disable>
 5bc:	00018713          	mv	a4,gp
 5c0:	fec42783          	lw	a5,-20(s0)
 5c4:	00279793          	slli	a5,a5,0x2
 5c8:	00f707b3          	add	a5,a4,a5
 5cc:	00000717          	auipc	a4,0x0
 5d0:	f2070713          	addi	a4,a4,-224 # 4ec <isr_default>
 5d4:	00e7a023          	sw	a4,0(a5)
 5d8:	fec42583          	lw	a1,-20(s0)
 5dc:	00200513          	li	a0,2
 5e0:	ec9ff0ef          	jal	ra,4a8 <set_interrupt_priority>
 5e4:	fec42783          	lw	a5,-20(s0)
 5e8:	00178793          	addi	a5,a5,1
 5ec:	fef42623          	sw	a5,-20(s0)
 5f0:	fec42703          	lw	a4,-20(s0)
 5f4:	01b00793          	li	a5,27
 5f8:	f6e7f2e3          	bgeu	a5,a4,55c <plic_init+0x50>
 5fc:	00100513          	li	a0,1
 600:	e71ff0ef          	jal	ra,470 <set_interrupt_threshold>
 604:	00000013          	nop
 608:	01c12083          	lw	ra,28(sp)
 60c:	01812403          	lw	s0,24(sp)
 610:	02010113          	addi	sp,sp,32
 614:	00008067          	ret

00000618 <configure_interrupt>:
 618:	fe010113          	addi	sp,sp,-32
 61c:	00112e23          	sw	ra,28(sp)
 620:	00812c23          	sw	s0,24(sp)
 624:	02010413          	addi	s0,sp,32
 628:	fea42623          	sw	a0,-20(s0)
 62c:	fec42703          	lw	a4,-20(s0)
 630:	00600793          	li	a5,6
 634:	00e7fc63          	bgeu	a5,a4,64c <configure_interrupt+0x34>
 638:	fec42703          	lw	a4,-20(s0)
 63c:	01500793          	li	a5,21
 640:	00e7e663          	bltu	a5,a4,64c <configure_interrupt+0x34>
 644:	fec42503          	lw	a0,-20(s0)
 648:	c41ff0ef          	jal	ra,288 <configure_interrupt_pin>
 64c:	fec42503          	lw	a0,-20(s0)
 650:	d05ff0ef          	jal	ra,354 <interrupt_enable>
 654:	00000013          	nop
 658:	01c12083          	lw	ra,28(sp)
 65c:	01812403          	lw	s0,24(sp)
 660:	02010113          	addi	sp,sp,32
 664:	00008067          	ret

00000668 <extract_ie_code>:
 668:	fd010113          	addi	sp,sp,-48
 66c:	02812623          	sw	s0,44(sp)
 670:	03010413          	addi	s0,sp,48
 674:	fca42e23          	sw	a0,-36(s0)
 678:	fdc42703          	lw	a4,-36(s0)
 67c:	800007b7          	lui	a5,0x80000
 680:	fff7c793          	not	a5,a5
 684:	00f777b3          	and	a5,a4,a5
 688:	fef42623          	sw	a5,-20(s0)
 68c:	fec42783          	lw	a5,-20(s0)
 690:	00078513          	mv	a0,a5
 694:	02c12403          	lw	s0,44(sp)
 698:	03010113          	addi	sp,sp,48
 69c:	00008067          	ret

000006a0 <default_handler>:
 6a0:	fe010113          	addi	sp,sp,-32
 6a4:	00812e23          	sw	s0,28(sp)
 6a8:	02010413          	addi	s0,sp,32
 6ac:	fea42623          	sw	a0,-20(s0)
 6b0:	feb42423          	sw	a1,-24(s0)
 6b4:	0000006f          	j	6b4 <default_handler+0x14>

000006b8 <handle_trap>:
 6b8:	fd010113          	addi	sp,sp,-48
 6bc:	02112623          	sw	ra,44(sp)
 6c0:	02812423          	sw	s0,40(sp)
 6c4:	03010413          	addi	s0,sp,48
 6c8:	fca42e23          	sw	a0,-36(s0)
 6cc:	fcb42c23          	sw	a1,-40(s0)
 6d0:	fe042623          	sw	zero,-20(s0)
 6d4:	fe042423          	sw	zero,-24(s0)
 6d8:	01f00793          	li	a5,31
 6dc:	fef42423          	sw	a5,-24(s0)
 6e0:	fe842783          	lw	a5,-24(s0)
 6e4:	00100713          	li	a4,1
 6e8:	00f717b3          	sll	a5,a4,a5
 6ec:	00078713          	mv	a4,a5
 6f0:	fdc42783          	lw	a5,-36(s0)
 6f4:	00f777b3          	and	a5,a4,a5
 6f8:	02078a63          	beqz	a5,72c <handle_trap+0x74>
 6fc:	fdc42503          	lw	a0,-36(s0)
 700:	f69ff0ef          	jal	ra,668 <extract_ie_code>
 704:	fea42623          	sw	a0,-20(s0)
 708:	23818713          	addi	a4,gp,568 # 10000238 <mcause_interrupt_table>
 70c:	fec42783          	lw	a5,-20(s0)
 710:	00279793          	slli	a5,a5,0x2
 714:	00f707b3          	add	a5,a4,a5
 718:	0007a783          	lw	a5,0(a5) # 80000000 <__stack_top+0x6ffff000>
 71c:	fd842583          	lw	a1,-40(s0)
 720:	fdc42503          	lw	a0,-36(s0)
 724:	000780e7          	jalr	a5
 728:	0240006f          	j	74c <handle_trap+0x94>
 72c:	23018713          	addi	a4,gp,560 # 10000230 <mcause_trap_table>
 730:	fdc42783          	lw	a5,-36(s0)
 734:	00279793          	slli	a5,a5,0x2
 738:	00f707b3          	add	a5,a4,a5
 73c:	0007a783          	lw	a5,0(a5)
 740:	fd842583          	lw	a1,-40(s0)
 744:	fdc42503          	lw	a0,-36(s0)
 748:	000780e7          	jalr	a5
 74c:	fd842783          	lw	a5,-40(s0)
 750:	00078513          	mv	a0,a5
 754:	02c12083          	lw	ra,44(sp)
 758:	02812403          	lw	s0,40(sp)
 75c:	03010113          	addi	sp,sp,48
 760:	00008067          	ret

00000764 <main>:
 764:	fe010113          	addi	sp,sp,-32
 768:	00112e23          	sw	ra,28(sp)
 76c:	00812c23          	sw	s0,24(sp)
 770:	02010413          	addi	s0,sp,32
 774:	00100793          	li	a5,1
 778:	fef42623          	sw	a5,-20(s0)
 77c:	00500793          	li	a5,5
 780:	fef42423          	sw	a5,-24(s0)
 784:	fec42703          	lw	a4,-20(s0)
 788:	fe842783          	lw	a5,-24(s0)
 78c:	00f707b3          	add	a5,a4,a5
 790:	fef42223          	sw	a5,-28(s0)
 794:	fe442703          	lw	a4,-28(s0)
 798:	00500793          	li	a5,5
 79c:	00e7da63          	bge	a5,a4,7b0 <main+0x4c>
 7a0:	00100593          	li	a1,1
 7a4:	00300513          	li	a0,3
 7a8:	9a1ff0ef          	jal	ra,148 <write_gpio>
 7ac:	0100006f          	j	7bc <main+0x58>
 7b0:	00000593          	li	a1,0
 7b4:	00300513          	li	a0,3
 7b8:	991ff0ef          	jal	ra,148 <write_gpio>
 7bc:	00000793          	li	a5,0
 7c0:	00078513          	mv	a0,a5
 7c4:	01c12083          	lw	ra,28(sp)
 7c8:	01812403          	lw	s0,24(sp)
 7cc:	02010113          	addi	sp,sp,32
 7d0:	00008067          	ret
