
softwares/plic_test/output/plic_test.merl:     file format elf32-littleriscv


Disassembly of section .init:

20000000 <_start>:
20000000:	00000297          	auipc	t0,0x0
20000004:	02c28293          	addi	t0,t0,44 # 2000002c <trap_entry>
20000008:	30529073          	csrw	mtvec,t0
2000000c:	f0000197          	auipc	gp,0xf0000
20000010:	ff418193          	addi	gp,gp,-12 # 10000000 <isr_table>
20000014:	f0001117          	auipc	sp,0xf0001
20000018:	fec10113          	addi	sp,sp,-20 # 10001000 <__stack_top>
2000001c:	00010433          	add	s0,sp,zero
20000020:	20d0006f          	j	20000a2c <main>

Disassembly of section .text:

20000028 <_stext>:
20000028:	00000013          	nop

2000002c <trap_entry>:
2000002c:	f8010113          	addi	sp,sp,-128
20000030:	00112223          	sw	ra,4(sp)
20000034:	00212423          	sw	sp,8(sp)
20000038:	00312623          	sw	gp,12(sp)
2000003c:	00412823          	sw	tp,16(sp)
20000040:	00512a23          	sw	t0,20(sp)
20000044:	00612c23          	sw	t1,24(sp)
20000048:	00712e23          	sw	t2,28(sp)
2000004c:	02812023          	sw	s0,32(sp)
20000050:	02912223          	sw	s1,36(sp)
20000054:	02a12423          	sw	a0,40(sp)
20000058:	02b12623          	sw	a1,44(sp)
2000005c:	02c12823          	sw	a2,48(sp)
20000060:	02d12a23          	sw	a3,52(sp)
20000064:	02e12c23          	sw	a4,56(sp)
20000068:	02f12e23          	sw	a5,60(sp)
2000006c:	05012023          	sw	a6,64(sp)
20000070:	05112223          	sw	a7,68(sp)
20000074:	05212423          	sw	s2,72(sp)
20000078:	05312623          	sw	s3,76(sp)
2000007c:	05412823          	sw	s4,80(sp)
20000080:	05512a23          	sw	s5,84(sp)
20000084:	05612c23          	sw	s6,88(sp)
20000088:	05712e23          	sw	s7,92(sp)
2000008c:	07812023          	sw	s8,96(sp)
20000090:	07912223          	sw	s9,100(sp)
20000094:	07a12423          	sw	s10,104(sp)
20000098:	07b12623          	sw	s11,108(sp)
2000009c:	07c12823          	sw	t3,112(sp)
200000a0:	07d12a23          	sw	t4,116(sp)
200000a4:	07e12c23          	sw	t5,120(sp)
200000a8:	07f12e23          	sw	t6,124(sp)
200000ac:	34202573          	csrr	a0,mcause
200000b0:	341025f3          	csrr	a1,mepc
200000b4:	00010613          	mv	a2,sp
200000b8:	0f5000ef          	jal	ra,200009ac <handle_trap>
200000bc:	34151073          	csrw	mepc,a0
200000c0:	00412083          	lw	ra,4(sp)
200000c4:	00812103          	lw	sp,8(sp)
200000c8:	00c12183          	lw	gp,12(sp)
200000cc:	01012203          	lw	tp,16(sp)
200000d0:	01412283          	lw	t0,20(sp)
200000d4:	01812303          	lw	t1,24(sp)
200000d8:	01c12383          	lw	t2,28(sp)
200000dc:	02012403          	lw	s0,32(sp)
200000e0:	02412483          	lw	s1,36(sp)
200000e4:	02812503          	lw	a0,40(sp)
200000e8:	02c12583          	lw	a1,44(sp)
200000ec:	03012603          	lw	a2,48(sp)
200000f0:	03412683          	lw	a3,52(sp)
200000f4:	03812703          	lw	a4,56(sp)
200000f8:	03c12783          	lw	a5,60(sp)
200000fc:	04012803          	lw	a6,64(sp)
20000100:	04412883          	lw	a7,68(sp)
20000104:	04812903          	lw	s2,72(sp)
20000108:	04c12983          	lw	s3,76(sp)
2000010c:	05012a03          	lw	s4,80(sp)
20000110:	05412a83          	lw	s5,84(sp)
20000114:	05812b03          	lw	s6,88(sp)
20000118:	05c12b83          	lw	s7,92(sp)
2000011c:	06012c03          	lw	s8,96(sp)
20000120:	06412c83          	lw	s9,100(sp)
20000124:	06812d03          	lw	s10,104(sp)
20000128:	06c12d83          	lw	s11,108(sp)
2000012c:	07012e03          	lw	t3,112(sp)
20000130:	07412e83          	lw	t4,116(sp)
20000134:	07812f03          	lw	t5,120(sp)
20000138:	07c12f83          	lw	t6,124(sp)
2000013c:	08010113          	addi	sp,sp,128
20000140:	30200073          	mret

20000144 <index_to_mask>:
20000144:	fe010113          	addi	sp,sp,-32
20000148:	00812e23          	sw	s0,28(sp)
2000014c:	02010413          	addi	s0,sp,32
20000150:	fea42623          	sw	a0,-20(s0)
20000154:	fec42783          	lw	a5,-20(s0)
20000158:	00100713          	li	a4,1
2000015c:	00f717b3          	sll	a5,a4,a5
20000160:	00078513          	mv	a0,a5
20000164:	01c12403          	lw	s0,28(sp)
20000168:	02010113          	addi	sp,sp,32
2000016c:	00008067          	ret

20000170 <mem_write32>:
20000170:	fe010113          	addi	sp,sp,-32
20000174:	00812e23          	sw	s0,28(sp)
20000178:	02010413          	addi	s0,sp,32
2000017c:	fea42623          	sw	a0,-20(s0)
20000180:	feb42423          	sw	a1,-24(s0)
20000184:	fec42223          	sw	a2,-28(s0)
20000188:	fe842783          	lw	a5,-24(s0)
2000018c:	ffc7f713          	andi	a4,a5,-4
20000190:	fec42783          	lw	a5,-20(s0)
20000194:	00f707b3          	add	a5,a4,a5
20000198:	00078713          	mv	a4,a5
2000019c:	fe442783          	lw	a5,-28(s0)
200001a0:	00f72023          	sw	a5,0(a4)
200001a4:	00000013          	nop
200001a8:	01c12403          	lw	s0,28(sp)
200001ac:	02010113          	addi	sp,sp,32
200001b0:	00008067          	ret

200001b4 <gpio_direct_bit_write>:
200001b4:	fd010113          	addi	sp,sp,-48
200001b8:	02112623          	sw	ra,44(sp)
200001bc:	02812423          	sw	s0,40(sp)
200001c0:	03010413          	addi	s0,sp,48
200001c4:	fca42e23          	sw	a0,-36(s0)
200001c8:	fcb42c23          	sw	a1,-40(s0)
200001cc:	00060793          	mv	a5,a2
200001d0:	fcf40ba3          	sb	a5,-41(s0)
200001d4:	fd842783          	lw	a5,-40(s0)
200001d8:	01f7f793          	andi	a5,a5,31
200001dc:	00078513          	mv	a0,a5
200001e0:	f65ff0ef          	jal	ra,20000144 <index_to_mask>
200001e4:	fea42623          	sw	a0,-20(s0)
200001e8:	fd744783          	lbu	a5,-41(s0)
200001ec:	00078663          	beqz	a5,200001f8 <gpio_direct_bit_write+0x44>
200001f0:	fec42783          	lw	a5,-20(s0)
200001f4:	0080006f          	j	200001fc <gpio_direct_bit_write+0x48>
200001f8:	00000793          	li	a5,0
200001fc:	00078613          	mv	a2,a5
20000200:	fdc42583          	lw	a1,-36(s0)
20000204:	400c0537          	lui	a0,0x400c0
20000208:	f69ff0ef          	jal	ra,20000170 <mem_write32>
2000020c:	00000013          	nop
20000210:	02c12083          	lw	ra,44(sp)
20000214:	02812403          	lw	s0,40(sp)
20000218:	03010113          	addi	sp,sp,48
2000021c:	00008067          	ret

20000220 <gpio_intr_enable>:
20000220:	fe010113          	addi	sp,sp,-32
20000224:	00112e23          	sw	ra,28(sp)
20000228:	00812c23          	sw	s0,24(sp)
2000022c:	02010413          	addi	s0,sp,32
20000230:	fea42623          	sw	a0,-20(s0)
20000234:	00100613          	li	a2,1
20000238:	fec42583          	lw	a1,-20(s0)
2000023c:	00400513          	li	a0,4
20000240:	f75ff0ef          	jal	ra,200001b4 <gpio_direct_bit_write>
20000244:	00000013          	nop
20000248:	01c12083          	lw	ra,28(sp)
2000024c:	01812403          	lw	s0,24(sp)
20000250:	02010113          	addi	sp,sp,32
20000254:	00008067          	ret

20000258 <gpio_intr_type>:
20000258:	fe010113          	addi	sp,sp,-32
2000025c:	00112e23          	sw	ra,28(sp)
20000260:	00812c23          	sw	s0,24(sp)
20000264:	02010413          	addi	s0,sp,32
20000268:	fea42623          	sw	a0,-20(s0)
2000026c:	00100613          	li	a2,1
20000270:	fec42583          	lw	a1,-20(s0)
20000274:	03000513          	li	a0,48
20000278:	f3dff0ef          	jal	ra,200001b4 <gpio_direct_bit_write>
2000027c:	00000013          	nop
20000280:	01c12083          	lw	ra,28(sp)
20000284:	01812403          	lw	s0,24(sp)
20000288:	02010113          	addi	sp,sp,32
2000028c:	00008067          	ret

20000290 <gpio_masked_bit_write>:
20000290:	fd010113          	addi	sp,sp,-48
20000294:	02112623          	sw	ra,44(sp)
20000298:	02812423          	sw	s0,40(sp)
2000029c:	03010413          	addi	s0,sp,48
200002a0:	fca42e23          	sw	a0,-36(s0)
200002a4:	fcb42c23          	sw	a1,-40(s0)
200002a8:	fcc42a23          	sw	a2,-44(s0)
200002ac:	fcd42823          	sw	a3,-48(s0)
200002b0:	fd442703          	lw	a4,-44(s0)
200002b4:	000107b7          	lui	a5,0x10
200002b8:	fff78793          	addi	a5,a5,-1 # ffff <isr_table-0xfff0001>
200002bc:	00f777b3          	and	a5,a4,a5
200002c0:	fef42623          	sw	a5,-20(s0)
200002c4:	fd442703          	lw	a4,-44(s0)
200002c8:	ffff07b7          	lui	a5,0xffff0
200002cc:	00f777b3          	and	a5,a4,a5
200002d0:	fef42423          	sw	a5,-24(s0)
200002d4:	fec42783          	lw	a5,-20(s0)
200002d8:	02078863          	beqz	a5,20000308 <gpio_masked_bit_write+0x78>
200002dc:	fec42783          	lw	a5,-20(s0)
200002e0:	01079713          	slli	a4,a5,0x10
200002e4:	fd042683          	lw	a3,-48(s0)
200002e8:	000107b7          	lui	a5,0x10
200002ec:	fff78793          	addi	a5,a5,-1 # ffff <isr_table-0xfff0001>
200002f0:	00f6f7b3          	and	a5,a3,a5
200002f4:	00f767b3          	or	a5,a4,a5
200002f8:	00078613          	mv	a2,a5
200002fc:	fdc42583          	lw	a1,-36(s0)
20000300:	400c0537          	lui	a0,0x400c0
20000304:	e6dff0ef          	jal	ra,20000170 <mem_write32>
20000308:	fe842783          	lw	a5,-24(s0)
2000030c:	02078263          	beqz	a5,20000330 <gpio_masked_bit_write+0xa0>
20000310:	fd042783          	lw	a5,-48(s0)
20000314:	0107d713          	srli	a4,a5,0x10
20000318:	fe842783          	lw	a5,-24(s0)
2000031c:	00f767b3          	or	a5,a4,a5
20000320:	00078613          	mv	a2,a5
20000324:	fd842583          	lw	a1,-40(s0)
20000328:	400c0537          	lui	a0,0x400c0
2000032c:	e45ff0ef          	jal	ra,20000170 <mem_write32>
20000330:	00000013          	nop
20000334:	02c12083          	lw	ra,44(sp)
20000338:	02812403          	lw	s0,40(sp)
2000033c:	03010113          	addi	sp,sp,48
20000340:	00008067          	ret

20000344 <gpio_masked_write>:
20000344:	fd010113          	addi	sp,sp,-48
20000348:	02112623          	sw	ra,44(sp)
2000034c:	02812423          	sw	s0,40(sp)
20000350:	03010413          	addi	s0,sp,48
20000354:	fca42e23          	sw	a0,-36(s0)
20000358:	fcb42c23          	sw	a1,-40(s0)
2000035c:	fdc42703          	lw	a4,-36(s0)
20000360:	41f75793          	srai	a5,a4,0x1f
20000364:	01b7d793          	srli	a5,a5,0x1b
20000368:	00f70733          	add	a4,a4,a5
2000036c:	01f77713          	andi	a4,a4,31
20000370:	40f707b3          	sub	a5,a4,a5
20000374:	00078513          	mv	a0,a5
20000378:	dcdff0ef          	jal	ra,20000144 <index_to_mask>
2000037c:	fea42623          	sw	a0,-20(s0)
20000380:	fec42683          	lw	a3,-20(s0)
20000384:	000107b7          	lui	a5,0x10
20000388:	fff78613          	addi	a2,a5,-1 # ffff <isr_table-0xfff0001>
2000038c:	01800593          	li	a1,24
20000390:	01400513          	li	a0,20
20000394:	efdff0ef          	jal	ra,20000290 <gpio_masked_bit_write>
20000398:	00000013          	nop
2000039c:	02c12083          	lw	ra,44(sp)
200003a0:	02812403          	lw	s0,40(sp)
200003a4:	03010113          	addi	sp,sp,48
200003a8:	00008067          	ret

200003ac <gpio_direct_write>:
200003ac:	fe010113          	addi	sp,sp,-32
200003b0:	00112e23          	sw	ra,28(sp)
200003b4:	00812c23          	sw	s0,24(sp)
200003b8:	02010413          	addi	s0,sp,32
200003bc:	fea42623          	sw	a0,-20(s0)
200003c0:	feb42423          	sw	a1,-24(s0)
200003c4:	fec42703          	lw	a4,-20(s0)
200003c8:	fe842783          	lw	a5,-24(s0)
200003cc:	00f037b3          	snez	a5,a5
200003d0:	0ff7f793          	andi	a5,a5,255
200003d4:	00078613          	mv	a2,a5
200003d8:	00070593          	mv	a1,a4
200003dc:	01000513          	li	a0,16
200003e0:	dd5ff0ef          	jal	ra,200001b4 <gpio_direct_bit_write>
200003e4:	00000013          	nop
200003e8:	01c12083          	lw	ra,28(sp)
200003ec:	01812403          	lw	s0,24(sp)
200003f0:	02010113          	addi	sp,sp,32
200003f4:	00008067          	ret

200003f8 <index_to_mask>:
200003f8:	fe010113          	addi	sp,sp,-32
200003fc:	00812e23          	sw	s0,28(sp)
20000400:	02010413          	addi	s0,sp,32
20000404:	fea42623          	sw	a0,-20(s0)
20000408:	fec42783          	lw	a5,-20(s0)
2000040c:	00100713          	li	a4,1
20000410:	00f717b3          	sll	a5,a4,a5
20000414:	00078513          	mv	a0,a5
20000418:	01c12403          	lw	s0,28(sp)
2000041c:	02010113          	addi	sp,sp,32
20000420:	00008067          	ret

20000424 <mem_read32>:
20000424:	fe010113          	addi	sp,sp,-32
20000428:	00812e23          	sw	s0,28(sp)
2000042c:	02010413          	addi	s0,sp,32
20000430:	fea42623          	sw	a0,-20(s0)
20000434:	feb42423          	sw	a1,-24(s0)
20000438:	fe842783          	lw	a5,-24(s0)
2000043c:	ffc7f713          	andi	a4,a5,-4
20000440:	fec42783          	lw	a5,-20(s0)
20000444:	00f707b3          	add	a5,a4,a5
20000448:	0007a783          	lw	a5,0(a5)
2000044c:	00078513          	mv	a0,a5
20000450:	01c12403          	lw	s0,28(sp)
20000454:	02010113          	addi	sp,sp,32
20000458:	00008067          	ret

2000045c <bitfield_bit32_to_field32>:
2000045c:	fd010113          	addi	sp,sp,-48
20000460:	02812623          	sw	s0,44(sp)
20000464:	03010413          	addi	s0,sp,48
20000468:	fca42e23          	sw	a0,-36(s0)
2000046c:	00100793          	li	a5,1
20000470:	fef42423          	sw	a5,-24(s0)
20000474:	fdc42783          	lw	a5,-36(s0)
20000478:	fef42623          	sw	a5,-20(s0)
2000047c:	fe842703          	lw	a4,-24(s0)
20000480:	fec42783          	lw	a5,-20(s0)
20000484:	00070613          	mv	a2,a4
20000488:	00078693          	mv	a3,a5
2000048c:	00060713          	mv	a4,a2
20000490:	00068793          	mv	a5,a3
20000494:	00070513          	mv	a0,a4
20000498:	00078593          	mv	a1,a5
2000049c:	02c12403          	lw	s0,44(sp)
200004a0:	03010113          	addi	sp,sp,48
200004a4:	00008067          	ret

200004a8 <bitfield_field32_write>:
200004a8:	fe010113          	addi	sp,sp,-32
200004ac:	00812e23          	sw	s0,28(sp)
200004b0:	02010413          	addi	s0,sp,32
200004b4:	fea42623          	sw	a0,-20(s0)
200004b8:	feb42223          	sw	a1,-28(s0)
200004bc:	fec42423          	sw	a2,-24(s0)
200004c0:	fed42023          	sw	a3,-32(s0)
200004c4:	fe442703          	lw	a4,-28(s0)
200004c8:	fe842783          	lw	a5,-24(s0)
200004cc:	00f717b3          	sll	a5,a4,a5
200004d0:	fff7c793          	not	a5,a5
200004d4:	fec42703          	lw	a4,-20(s0)
200004d8:	00f777b3          	and	a5,a4,a5
200004dc:	fef42623          	sw	a5,-20(s0)
200004e0:	fe442703          	lw	a4,-28(s0)
200004e4:	fe042783          	lw	a5,-32(s0)
200004e8:	00f77733          	and	a4,a4,a5
200004ec:	fe842783          	lw	a5,-24(s0)
200004f0:	00f717b3          	sll	a5,a4,a5
200004f4:	fec42703          	lw	a4,-20(s0)
200004f8:	00f767b3          	or	a5,a4,a5
200004fc:	fef42623          	sw	a5,-20(s0)
20000500:	fec42783          	lw	a5,-20(s0)
20000504:	00078513          	mv	a0,a5
20000508:	01c12403          	lw	s0,28(sp)
2000050c:	02010113          	addi	sp,sp,32
20000510:	00008067          	ret

20000514 <bitfield_bit32_write>:
20000514:	fd010113          	addi	sp,sp,-48
20000518:	02112623          	sw	ra,44(sp)
2000051c:	02812423          	sw	s0,40(sp)
20000520:	03010413          	addi	s0,sp,48
20000524:	fca42e23          	sw	a0,-36(s0)
20000528:	fcb42c23          	sw	a1,-40(s0)
2000052c:	00060793          	mv	a5,a2
20000530:	fcf40ba3          	sb	a5,-41(s0)
20000534:	fd842503          	lw	a0,-40(s0)
20000538:	f25ff0ef          	jal	ra,2000045c <bitfield_bit32_to_field32>
2000053c:	00050713          	mv	a4,a0
20000540:	00058793          	mv	a5,a1
20000544:	fee42423          	sw	a4,-24(s0)
20000548:	fef42623          	sw	a5,-20(s0)
2000054c:	fd744783          	lbu	a5,-41(s0)
20000550:	00078663          	beqz	a5,2000055c <bitfield_bit32_write+0x48>
20000554:	00100793          	li	a5,1
20000558:	0080006f          	j	20000560 <bitfield_bit32_write+0x4c>
2000055c:	00000793          	li	a5,0
20000560:	00078693          	mv	a3,a5
20000564:	fe842583          	lw	a1,-24(s0)
20000568:	fec42603          	lw	a2,-20(s0)
2000056c:	fdc42503          	lw	a0,-36(s0)
20000570:	f39ff0ef          	jal	ra,200004a8 <bitfield_field32_write>
20000574:	00050793          	mv	a5,a0
20000578:	00078513          	mv	a0,a5
2000057c:	02c12083          	lw	ra,44(sp)
20000580:	02812403          	lw	s0,40(sp)
20000584:	03010113          	addi	sp,sp,48
20000588:	00008067          	ret

2000058c <plic_priority_reg_offset>:
2000058c:	fd010113          	addi	sp,sp,-48
20000590:	02812623          	sw	s0,44(sp)
20000594:	03010413          	addi	s0,sp,48
20000598:	fca42e23          	sw	a0,-36(s0)
2000059c:	fdc42783          	lw	a5,-36(s0)
200005a0:	00279793          	slli	a5,a5,0x2
200005a4:	fef42623          	sw	a5,-20(s0)
200005a8:	fec42783          	lw	a5,-20(s0)
200005ac:	00878793          	addi	a5,a5,8
200005b0:	00078513          	mv	a0,a5
200005b4:	02c12403          	lw	s0,44(sp)
200005b8:	03010113          	addi	sp,sp,48
200005bc:	00008067          	ret

200005c0 <plic_offset_from_reg0>:
200005c0:	fd010113          	addi	sp,sp,-48
200005c4:	02812623          	sw	s0,44(sp)
200005c8:	03010413          	addi	s0,sp,48
200005cc:	fca42e23          	sw	a0,-36(s0)
200005d0:	fdc42783          	lw	a5,-36(s0)
200005d4:	0057d793          	srli	a5,a5,0x5
200005d8:	fef407a3          	sb	a5,-17(s0)
200005dc:	fef44783          	lbu	a5,-17(s0)
200005e0:	00279793          	slli	a5,a5,0x2
200005e4:	00078513          	mv	a0,a5
200005e8:	02c12403          	lw	s0,44(sp)
200005ec:	03010113          	addi	sp,sp,48
200005f0:	00008067          	ret

200005f4 <plic_irq_bit_index>:
200005f4:	fe010113          	addi	sp,sp,-32
200005f8:	00812e23          	sw	s0,28(sp)
200005fc:	02010413          	addi	s0,sp,32
20000600:	fea42623          	sw	a0,-20(s0)
20000604:	fec42783          	lw	a5,-20(s0)
20000608:	0ff7f793          	andi	a5,a5,255
2000060c:	01f7f793          	andi	a5,a5,31
20000610:	0ff7f793          	andi	a5,a5,255
20000614:	00078513          	mv	a0,a5
20000618:	01c12403          	lw	s0,28(sp)
2000061c:	02010113          	addi	sp,sp,32
20000620:	00008067          	ret

20000624 <plic_irq_enable_reg_info>:
20000624:	fb010113          	addi	sp,sp,-80
20000628:	04112623          	sw	ra,76(sp)
2000062c:	04812423          	sw	s0,72(sp)
20000630:	04912223          	sw	s1,68(sp)
20000634:	05212023          	sw	s2,64(sp)
20000638:	03312e23          	sw	s3,60(sp)
2000063c:	05010413          	addi	s0,sp,80
20000640:	faa42e23          	sw	a0,-68(s0)
20000644:	fbc42503          	lw	a0,-68(s0)
20000648:	f79ff0ef          	jal	ra,200005c0 <plic_offset_from_reg0>
2000064c:	fca42e23          	sw	a0,-36(s0)
20000650:	fdc42783          	lw	a5,-36(s0)
20000654:	10078493          	addi	s1,a5,256
20000658:	fbc42503          	lw	a0,-68(s0)
2000065c:	f99ff0ef          	jal	ra,200005f4 <plic_irq_bit_index>
20000660:	00050793          	mv	a5,a0
20000664:	fc942a23          	sw	s1,-44(s0)
20000668:	fcf42c23          	sw	a5,-40(s0)
2000066c:	fd442703          	lw	a4,-44(s0)
20000670:	fd842783          	lw	a5,-40(s0)
20000674:	00070913          	mv	s2,a4
20000678:	00078993          	mv	s3,a5
2000067c:	00090713          	mv	a4,s2
20000680:	00098793          	mv	a5,s3
20000684:	00070513          	mv	a0,a4
20000688:	00078593          	mv	a1,a5
2000068c:	04c12083          	lw	ra,76(sp)
20000690:	04812403          	lw	s0,72(sp)
20000694:	04412483          	lw	s1,68(sp)
20000698:	04012903          	lw	s2,64(sp)
2000069c:	03c12983          	lw	s3,60(sp)
200006a0:	05010113          	addi	sp,sp,80
200006a4:	00008067          	ret

200006a8 <interrupt_claim_request>:
200006a8:	fe010113          	addi	sp,sp,-32
200006ac:	00812e23          	sw	s0,28(sp)
200006b0:	02010413          	addi	s0,sp,32
200006b4:	fe042623          	sw	zero,-20(s0)
200006b8:	400507b7          	lui	a5,0x40050
200006bc:	10878793          	addi	a5,a5,264 # 40050108 <_etext+0x2004f644>
200006c0:	fef42623          	sw	a5,-20(s0)
200006c4:	fec42783          	lw	a5,-20(s0)
200006c8:	0007a783          	lw	a5,0(a5)
200006cc:	fef42423          	sw	a5,-24(s0)
200006d0:	fe842783          	lw	a5,-24(s0)
200006d4:	00078513          	mv	a0,a5
200006d8:	01c12403          	lw	s0,28(sp)
200006dc:	02010113          	addi	sp,sp,32
200006e0:	00008067          	ret

200006e4 <mach_plic_handler>:
200006e4:	fd010113          	addi	sp,sp,-48
200006e8:	02112623          	sw	ra,44(sp)
200006ec:	02812423          	sw	s0,40(sp)
200006f0:	03010413          	addi	s0,sp,48
200006f4:	fca42e23          	sw	a0,-36(s0)
200006f8:	fcb42c23          	sw	a1,-40(s0)
200006fc:	fec42503          	lw	a0,-20(s0)
20000700:	154000ef          	jal	ra,20000854 <plic_irq_claim>
20000704:	fec42783          	lw	a5,-20(s0)
20000708:	0007a783          	lw	a5,0(a5)
2000070c:	00018713          	mv	a4,gp
20000710:	00279793          	slli	a5,a5,0x2
20000714:	00f707b3          	add	a5,a4,a5
20000718:	0007a703          	lw	a4,0(a5)
2000071c:	fec42783          	lw	a5,-20(s0)
20000720:	0007a783          	lw	a5,0(a5)
20000724:	00078513          	mv	a0,a5
20000728:	000700e7          	jalr	a4
2000072c:	fec42503          	lw	a0,-20(s0)
20000730:	164000ef          	jal	ra,20000894 <plic_irq_complete>
20000734:	00000013          	nop
20000738:	02c12083          	lw	ra,44(sp)
2000073c:	02812403          	lw	s0,40(sp)
20000740:	03010113          	addi	sp,sp,48
20000744:	00008067          	ret

20000748 <plic_set_priority>:
20000748:	fd010113          	addi	sp,sp,-48
2000074c:	02112623          	sw	ra,44(sp)
20000750:	02812423          	sw	s0,40(sp)
20000754:	03010413          	addi	s0,sp,48
20000758:	fca42e23          	sw	a0,-36(s0)
2000075c:	fcb42c23          	sw	a1,-40(s0)
20000760:	fdc42783          	lw	a5,-36(s0)
20000764:	00078513          	mv	a0,a5
20000768:	e25ff0ef          	jal	ra,2000058c <plic_priority_reg_offset>
2000076c:	fea42623          	sw	a0,-20(s0)
20000770:	fec42783          	lw	a5,-20(s0)
20000774:	fd842603          	lw	a2,-40(s0)
20000778:	00078593          	mv	a1,a5
2000077c:	40050537          	lui	a0,0x40050
20000780:	9f1ff0ef          	jal	ra,20000170 <mem_write32>
20000784:	00000013          	nop
20000788:	02c12083          	lw	ra,44(sp)
2000078c:	02812403          	lw	s0,40(sp)
20000790:	03010113          	addi	sp,sp,48
20000794:	00008067          	ret

20000798 <plic_set_threshold>:
20000798:	fe010113          	addi	sp,sp,-32
2000079c:	00112e23          	sw	ra,28(sp)
200007a0:	00812c23          	sw	s0,24(sp)
200007a4:	02010413          	addi	s0,sp,32
200007a8:	fea42623          	sw	a0,-20(s0)
200007ac:	fec42603          	lw	a2,-20(s0)
200007b0:	10400593          	li	a1,260
200007b4:	40050537          	lui	a0,0x40050
200007b8:	9b9ff0ef          	jal	ra,20000170 <mem_write32>
200007bc:	00000013          	nop
200007c0:	01c12083          	lw	ra,28(sp)
200007c4:	01812403          	lw	s0,24(sp)
200007c8:	02010113          	addi	sp,sp,32
200007cc:	00008067          	ret

200007d0 <plic_enable_interrupt>:
200007d0:	fd010113          	addi	sp,sp,-48
200007d4:	02112623          	sw	ra,44(sp)
200007d8:	02812423          	sw	s0,40(sp)
200007dc:	03010413          	addi	s0,sp,48
200007e0:	fca42e23          	sw	a0,-36(s0)
200007e4:	fdc42783          	lw	a5,-36(s0)
200007e8:	01f7f793          	andi	a5,a5,31
200007ec:	00078513          	mv	a0,a5
200007f0:	c09ff0ef          	jal	ra,200003f8 <index_to_mask>
200007f4:	fea42623          	sw	a0,-20(s0)
200007f8:	fec42603          	lw	a2,-20(s0)
200007fc:	10000593          	li	a1,256
20000800:	40050537          	lui	a0,0x40050
20000804:	96dff0ef          	jal	ra,20000170 <mem_write32>
20000808:	00000013          	nop
2000080c:	02c12083          	lw	ra,44(sp)
20000810:	02812403          	lw	s0,40(sp)
20000814:	03010113          	addi	sp,sp,48
20000818:	00008067          	ret

2000081c <plic_set_trigger_type>:
2000081c:	fe010113          	addi	sp,sp,-32
20000820:	00112e23          	sw	ra,28(sp)
20000824:	00812c23          	sw	s0,24(sp)
20000828:	02010413          	addi	s0,sp,32
2000082c:	fea42623          	sw	a0,-20(s0)
20000830:	fec42603          	lw	a2,-20(s0)
20000834:	00400593          	li	a1,4
20000838:	40050537          	lui	a0,0x40050
2000083c:	935ff0ef          	jal	ra,20000170 <mem_write32>
20000840:	00000013          	nop
20000844:	01c12083          	lw	ra,28(sp)
20000848:	01812403          	lw	s0,24(sp)
2000084c:	02010113          	addi	sp,sp,32
20000850:	00008067          	ret

20000854 <plic_irq_claim>:
20000854:	fe010113          	addi	sp,sp,-32
20000858:	00112e23          	sw	ra,28(sp)
2000085c:	00812c23          	sw	s0,24(sp)
20000860:	02010413          	addi	s0,sp,32
20000864:	fea42623          	sw	a0,-20(s0)
20000868:	10800593          	li	a1,264
2000086c:	40050537          	lui	a0,0x40050
20000870:	bb5ff0ef          	jal	ra,20000424 <mem_read32>
20000874:	00050713          	mv	a4,a0
20000878:	fec42783          	lw	a5,-20(s0)
2000087c:	00e7a023          	sw	a4,0(a5)
20000880:	00000013          	nop
20000884:	01c12083          	lw	ra,28(sp)
20000888:	01812403          	lw	s0,24(sp)
2000088c:	02010113          	addi	sp,sp,32
20000890:	00008067          	ret

20000894 <plic_irq_complete>:
20000894:	fe010113          	addi	sp,sp,-32
20000898:	00112e23          	sw	ra,28(sp)
2000089c:	00812c23          	sw	s0,24(sp)
200008a0:	02010413          	addi	s0,sp,32
200008a4:	fea42623          	sw	a0,-20(s0)
200008a8:	fec42783          	lw	a5,-20(s0)
200008ac:	0007a783          	lw	a5,0(a5)
200008b0:	00078613          	mv	a2,a5
200008b4:	10800593          	li	a1,264
200008b8:	40050537          	lui	a0,0x40050
200008bc:	8b5ff0ef          	jal	ra,20000170 <mem_write32>
200008c0:	00000013          	nop
200008c4:	01c12083          	lw	ra,28(sp)
200008c8:	01812403          	lw	s0,24(sp)
200008cc:	02010113          	addi	sp,sp,32
200008d0:	00008067          	ret

200008d4 <isr_default>:
200008d4:	fe010113          	addi	sp,sp,-32
200008d8:	00812e23          	sw	s0,28(sp)
200008dc:	02010413          	addi	s0,sp,32
200008e0:	fea42623          	sw	a0,-20(s0)
200008e4:	00000013          	nop
200008e8:	01c12403          	lw	s0,28(sp)
200008ec:	02010113          	addi	sp,sp,32
200008f0:	00008067          	ret

200008f4 <trap_init>:
200008f4:	ff010113          	addi	sp,sp,-16
200008f8:	00812623          	sw	s0,12(sp)
200008fc:	01010413          	addi	s0,sp,16
20000900:	0bc18793          	addi	a5,gp,188 # 100000bc <mcause_interrupt_table>
20000904:	00000717          	auipc	a4,0x0
20000908:	de070713          	addi	a4,a4,-544 # 200006e4 <mach_plic_handler>
2000090c:	02e7a623          	sw	a4,44(a5)
20000910:	07c18793          	addi	a5,gp,124 # 1000007c <mcause_trap_table>
20000914:	00000717          	auipc	a4,0x0
20000918:	08070713          	addi	a4,a4,128 # 20000994 <default_handler>
2000091c:	00e7a023          	sw	a4,0(a5)
20000920:	00000013          	nop
20000924:	00c12403          	lw	s0,12(sp)
20000928:	01010113          	addi	sp,sp,16
2000092c:	00008067          	ret

20000930 <init>:
20000930:	ff010113          	addi	sp,sp,-16
20000934:	00112623          	sw	ra,12(sp)
20000938:	00812423          	sw	s0,8(sp)
2000093c:	01010413          	addi	s0,sp,16
20000940:	fb5ff0ef          	jal	ra,200008f4 <trap_init>
20000944:	0e8000ef          	jal	ra,20000a2c <main>
20000948:	00000013          	nop
2000094c:	00c12083          	lw	ra,12(sp)
20000950:	00812403          	lw	s0,8(sp)
20000954:	01010113          	addi	sp,sp,16
20000958:	00008067          	ret

2000095c <extract_ie_code>:
2000095c:	fd010113          	addi	sp,sp,-48
20000960:	02812623          	sw	s0,44(sp)
20000964:	03010413          	addi	s0,sp,48
20000968:	fca42e23          	sw	a0,-36(s0)
2000096c:	fdc42703          	lw	a4,-36(s0)
20000970:	800007b7          	lui	a5,0x80000
20000974:	fff7c793          	not	a5,a5
20000978:	00f777b3          	and	a5,a4,a5
2000097c:	fef42623          	sw	a5,-20(s0)
20000980:	fec42783          	lw	a5,-20(s0)
20000984:	00078513          	mv	a0,a5
20000988:	02c12403          	lw	s0,44(sp)
2000098c:	03010113          	addi	sp,sp,48
20000990:	00008067          	ret

20000994 <default_handler>:
20000994:	fe010113          	addi	sp,sp,-32
20000998:	00812e23          	sw	s0,28(sp)
2000099c:	02010413          	addi	s0,sp,32
200009a0:	fea42623          	sw	a0,-20(s0)
200009a4:	feb42423          	sw	a1,-24(s0)
200009a8:	0000006f          	j	200009a8 <default_handler+0x14>

200009ac <handle_trap>:
200009ac:	fd010113          	addi	sp,sp,-48
200009b0:	02112623          	sw	ra,44(sp)
200009b4:	02812423          	sw	s0,40(sp)
200009b8:	03010413          	addi	s0,sp,48
200009bc:	fca42e23          	sw	a0,-36(s0)
200009c0:	fcb42c23          	sw	a1,-40(s0)
200009c4:	fe042623          	sw	zero,-20(s0)
200009c8:	fe042423          	sw	zero,-24(s0)
200009cc:	01f00793          	li	a5,31
200009d0:	fef42423          	sw	a5,-24(s0)
200009d4:	fd842583          	lw	a1,-40(s0)
200009d8:	fdc42503          	lw	a0,-36(s0)
200009dc:	d09ff0ef          	jal	ra,200006e4 <mach_plic_handler>
200009e0:	fd842783          	lw	a5,-40(s0)
200009e4:	00078513          	mv	a0,a5
200009e8:	02c12083          	lw	ra,44(sp)
200009ec:	02812403          	lw	s0,40(sp)
200009f0:	03010113          	addi	sp,sp,48
200009f4:	00008067          	ret

200009f8 <handle_button_press>:
200009f8:	fe010113          	addi	sp,sp,-32
200009fc:	00112e23          	sw	ra,28(sp)
20000a00:	00812c23          	sw	s0,24(sp)
20000a04:	02010413          	addi	s0,sp,32
20000a08:	fea42623          	sw	a0,-20(s0)
20000a0c:	00100593          	li	a1,1
20000a10:	00a00513          	li	a0,10
20000a14:	999ff0ef          	jal	ra,200003ac <gpio_direct_write>
20000a18:	00000013          	nop
20000a1c:	01c12083          	lw	ra,28(sp)
20000a20:	01812403          	lw	s0,24(sp)
20000a24:	02010113          	addi	sp,sp,32
20000a28:	00008067          	ret

20000a2c <main>:
20000a2c:	ff010113          	addi	sp,sp,-16
20000a30:	00112623          	sw	ra,12(sp)
20000a34:	00812423          	sw	s0,8(sp)
20000a38:	01010413          	addi	s0,sp,16
20000a3c:	00300513          	li	a0,3
20000a40:	fe0ff0ef          	jal	ra,20000220 <gpio_intr_enable>
20000a44:	00300513          	li	a0,3
20000a48:	811ff0ef          	jal	ra,20000258 <gpio_intr_type>
20000a4c:	00200513          	li	a0,2
20000a50:	d49ff0ef          	jal	ra,20000798 <plic_set_threshold>
20000a54:	00300593          	li	a1,3
20000a58:	00300513          	li	a0,3
20000a5c:	cedff0ef          	jal	ra,20000748 <plic_set_priority>
20000a60:	00300593          	li	a1,3
20000a64:	00d00513          	li	a0,13
20000a68:	ce1ff0ef          	jal	ra,20000748 <plic_set_priority>
20000a6c:	00d00513          	li	a0,13
20000a70:	d61ff0ef          	jal	ra,200007d0 <plic_enable_interrupt>
20000a74:	00000513          	li	a0,0
20000a78:	da5ff0ef          	jal	ra,2000081c <plic_set_trigger_type>
20000a7c:	00018793          	mv	a5,gp
20000a80:	00000717          	auipc	a4,0x0
20000a84:	f7870713          	addi	a4,a4,-136 # 200009f8 <handle_button_press>
20000a88:	02e7aa23          	sw	a4,52(a5) # 80000034 <_etext+0x5ffff570>
20000a8c:	00018793          	mv	a5,gp
20000a90:	11000713          	li	a4,272
20000a94:	00e7a623          	sw	a4,12(a5)
20000a98:	00800293          	li	t0,8
20000a9c:	3002a073          	csrs	mstatus,t0
20000aa0:	000012b7          	lui	t0,0x1
20000aa4:	80028293          	addi	t0,t0,-2048 # 800 <isr_table-0xffff800>
20000aa8:	3042a073          	csrs	mie,t0
20000aac:	00000793          	li	a5,0
20000ab0:	00078513          	mv	a0,a5
20000ab4:	00c12083          	lw	ra,12(sp)
20000ab8:	00812403          	lw	s0,8(sp)
20000abc:	01010113          	addi	sp,sp,16
20000ac0:	00008067          	ret

Disassembly of section .eh_frame:

20000ac4 <__global_pointer$+0x10000ac4>:
20000ac4:	0014                	0x14
20000ac6:	0000                	unimp
20000ac8:	0000                	unimp
20000aca:	0000                	unimp
20000acc:	00527a03          	0x527a03
20000ad0:	7c01                	lui	s8,0xfffe0
20000ad2:	0101                	addi	sp,sp,0
20000ad4:	07020d1b          	0x7020d1b
20000ad8:	0001                	nop
20000ada:	0000                	unimp
20000adc:	0010                	0x10
20000ade:	0000                	unimp
20000ae0:	001c                	0x1c
20000ae2:	0000                	unimp
20000ae4:	f528                	fsw	fa0,104(a0)
20000ae6:	ffff                	0xffff
20000ae8:	0018                	0x18
20000aea:	0000                	unimp
20000aec:	0000                	unimp
20000aee:	0000                	unimp

Disassembly of section .bss:

10000000 <isr_table>:
10000000:	0000                	unimp
10000002:	0000                	unimp
10000004:	0000                	unimp
10000006:	0000                	unimp
10000008:	0000                	unimp
1000000a:	0000                	unimp
1000000c:	0000                	unimp
1000000e:	0000                	unimp
10000010:	0000                	unimp
10000012:	0000                	unimp
10000014:	0000                	unimp
10000016:	0000                	unimp
10000018:	0000                	unimp
1000001a:	0000                	unimp
1000001c:	0000                	unimp
1000001e:	0000                	unimp
10000020:	0000                	unimp
10000022:	0000                	unimp
10000024:	0000                	unimp
10000026:	0000                	unimp
10000028:	0000                	unimp
1000002a:	0000                	unimp
1000002c:	0000                	unimp
1000002e:	0000                	unimp
10000030:	0000                	unimp
10000032:	0000                	unimp
10000034:	0000                	unimp
10000036:	0000                	unimp
10000038:	0000                	unimp
1000003a:	0000                	unimp
1000003c:	0000                	unimp
1000003e:	0000                	unimp
10000040:	0000                	unimp
10000042:	0000                	unimp
10000044:	0000                	unimp
10000046:	0000                	unimp
10000048:	0000                	unimp
1000004a:	0000                	unimp
1000004c:	0000                	unimp
1000004e:	0000                	unimp
10000050:	0000                	unimp
10000052:	0000                	unimp
10000054:	0000                	unimp
10000056:	0000                	unimp
10000058:	0000                	unimp
1000005a:	0000                	unimp
1000005c:	0000                	unimp
1000005e:	0000                	unimp
10000060:	0000                	unimp
10000062:	0000                	unimp
10000064:	0000                	unimp
10000066:	0000                	unimp
10000068:	0000                	unimp
1000006a:	0000                	unimp
1000006c:	0000                	unimp
1000006e:	0000                	unimp
10000070:	0000                	unimp
10000072:	0000                	unimp
10000074:	0000                	unimp
10000076:	0000                	unimp
10000078:	0000                	unimp
1000007a:	0000                	unimp

1000007c <mcause_trap_table>:
1000007c:	0000                	unimp
1000007e:	0000                	unimp
10000080:	0000                	unimp
10000082:	0000                	unimp
10000084:	0000                	unimp
10000086:	0000                	unimp
10000088:	0000                	unimp
1000008a:	0000                	unimp
1000008c:	0000                	unimp
1000008e:	0000                	unimp
10000090:	0000                	unimp
10000092:	0000                	unimp
10000094:	0000                	unimp
10000096:	0000                	unimp
10000098:	0000                	unimp
1000009a:	0000                	unimp
1000009c:	0000                	unimp
1000009e:	0000                	unimp
100000a0:	0000                	unimp
100000a2:	0000                	unimp
100000a4:	0000                	unimp
100000a6:	0000                	unimp
100000a8:	0000                	unimp
100000aa:	0000                	unimp
100000ac:	0000                	unimp
100000ae:	0000                	unimp
100000b0:	0000                	unimp
100000b2:	0000                	unimp
100000b4:	0000                	unimp
100000b6:	0000                	unimp
100000b8:	0000                	unimp
100000ba:	0000                	unimp

100000bc <mcause_interrupt_table>:
100000bc:	0000                	unimp
100000be:	0000                	unimp
100000c0:	0000                	unimp
100000c2:	0000                	unimp
100000c4:	0000                	unimp
100000c6:	0000                	unimp
100000c8:	0000                	unimp
100000ca:	0000                	unimp
100000cc:	0000                	unimp
100000ce:	0000                	unimp
100000d0:	0000                	unimp
100000d2:	0000                	unimp
100000d4:	0000                	unimp
100000d6:	0000                	unimp
100000d8:	0000                	unimp
100000da:	0000                	unimp
100000dc:	0000                	unimp
100000de:	0000                	unimp
100000e0:	0000                	unimp
100000e2:	0000                	unimp
100000e4:	0000                	unimp
100000e6:	0000                	unimp
100000e8:	0000                	unimp
100000ea:	0000                	unimp
100000ec:	0000                	unimp
100000ee:	0000                	unimp
100000f0:	0000                	unimp
100000f2:	0000                	unimp
100000f4:	0000                	unimp
100000f6:	0000                	unimp
100000f8:	0000                	unimp
100000fa:	0000                	unimp

Disassembly of section .riscv.attributes:

00000000 <.riscv.attributes>:
   0:	1f41                	addi	t5,t5,-16
   2:	0000                	unimp
   4:	7200                	flw	fs0,32(a2)
   6:	7369                	lui	t1,0xffffa
   8:	01007663          	bgeu	zero,a6,14 <isr_table-0xfffffec>
   c:	0015                	c.nop	5
   e:	0000                	unimp
  10:	1004                	addi	s1,sp,32
  12:	7205                	lui	tp,0xfffe1
  14:	3376                	fld	ft6,376(sp)
  16:	6932                	flw	fs2,12(sp)
  18:	7032                	flw	ft0,44(sp)
  1a:	0030                	addi	a2,sp,8
  1c:	0108                	addi	a0,sp,128
  1e:	0b0a                	slli	s6,s6,0x2

Disassembly of section .comment:

00000000 <.comment>:
   0:	3a434347          	fmsub.d	ft6,ft6,ft4,ft7,rmm
   4:	2820                	fld	fs0,80(s0)
   6:	29554e47          	fmsub.s	ft8,fa0,fs5,ft5,rmm
   a:	3120                	fld	fs0,96(a0)
   c:	2e30                	fld	fa2,88(a2)
   e:	2e32                	fld	ft8,264(sp)
  10:	0030                	addi	a2,sp,8

Disassembly of section .debug_info:

00000000 <.debug_info>:
   0:	027f                	0x27f
   2:	0000                	unimp
   4:	0004                	0x4
   6:	0000                	unimp
   8:	0000                	unimp
   a:	0104                	addi	s1,sp,128
   c:	0064                	addi	s1,sp,12
   e:	0000                	unimp
  10:	250c                	fld	fa1,8(a0)
  12:	0000                	unimp
  14:	7400                	flw	fs0,40(s0)
  16:	0001                	nop
  18:	4400                	lw	s0,8(s0)
  1a:	0001                	nop
  1c:	b420                	fsd	fs0,104(s0)
  1e:	0002                	c.slli64	zero
  20:	0000                	unimp
  22:	0000                	unimp
  24:	0200                	addi	s0,sp,256
  26:	0601                	addi	a2,a2,0
  28:	000000f3          	0xf3
  2c:	0102                	c.slli64	sp
  2e:	f108                	fsw	fa0,32(a0)
  30:	0000                	unimp
  32:	0200                	addi	s0,sp,256
  34:	0502                	c.slli64	a0
  36:	01a4                	addi	s1,sp,200
  38:	0000                	unimp
  3a:	0202                	c.slli64	tp
  3c:	0000de07          	0xde07
  40:	0200                	addi	s0,sp,256
  42:	0504                	addi	s1,sp,640
  44:	0000016b          	0x16b
  48:	0000ff03          	0xff03
  4c:	0200                	addi	s0,sp,256
  4e:	0054194f          	fnmadd.s	fs2,fs0,ft5,ft0,rtz
  52:	0000                	unimp
  54:	0402                	c.slli64	s0
  56:	00013607          	fld	fa2,0(sp)
  5a:	0200                	addi	s0,sp,256
  5c:	0508                	addi	a0,sp,640
  5e:	0166                	slli	sp,sp,0x19
  60:	0000                	unimp
  62:	0802                	c.slli64	a6
  64:	00013107          	fld	ft2,0(sp)
  68:	0400                	addi	s0,sp,512
  6a:	0504                	addi	s1,sp,640
  6c:	6e69                	lui	t3,0x1a
  6e:	0074                	addi	a3,sp,12
  70:	0402                	c.slli64	s0
  72:	00013b07          	fld	fs6,0(sp)
  76:	0300                	addi	s0,sp,384
  78:	0101                	addi	sp,sp,0
  7a:	0000                	unimp
  7c:	48143003          	0x48143003
  80:	0000                	unimp
  82:	0500                	addi	s0,sp,640
  84:	00000077          	0x77
  88:	cc06                	sw	ra,24(sp)
  8a:	0000                	unimp
  8c:	0100                	addi	s0,sp,128
  8e:	063e                	slli	a2,a2,0xf
  90:	03ac                	addi	a1,sp,456
  92:	2000                	fld	fs0,0(s0)
  94:	004c                	addi	a1,sp,4
  96:	0000                	unimp
  98:	9c01                	0x9c01
  9a:	00bd                	addi	ra,ra,15
  9c:	0000                	unimp
  9e:	6e697007          	0x6e697007
  a2:	0100                	addi	s0,sp,128
  a4:	1d3e                	slli	s10,s10,0x2f
  a6:	0041                	c.nop	16
  a8:	0000                	unimp
  aa:	9102                	jalr	sp
  ac:	076c                	addi	a1,sp,908
  ae:	6176                	flw	ft2,92(sp)
  b0:	006c                	addi	a1,sp,12
  b2:	3e01                	jal	fffffbc2 <_etext+0xdffff0fe>
  b4:	6926                	flw	fs2,72(sp)
  b6:	0000                	unimp
  b8:	0200                	addi	s0,sp,256
  ba:	6891                	lui	a7,0x4
  bc:	0600                	addi	s0,sp,768
  be:	00ba                	slli	ra,ra,0xe
  c0:	0000                	unimp
  c2:	3801                	jal	fffff8d2 <_etext+0xdfffee0e>
  c4:	4406                	lw	s0,64(sp)
  c6:	68200003          	lb	zero,1666(zero) # 682 <isr_table-0xffff97e>
  ca:	0000                	unimp
  cc:	0100                	addi	s0,sp,128
  ce:	019c                	addi	a5,sp,192
  d0:	0001                	nop
  d2:	0700                	addi	s0,sp,896
  d4:	6970                	flw	fa2,84(a0)
  d6:	006e                	c.slli	zero,0x1b
  d8:	3801                	jal	fffff8e8 <_etext+0xdfffee24>
  da:	691c                	flw	fa5,16(a0)
  dc:	0000                	unimp
  de:	0200                	addi	s0,sp,256
  e0:	5c91                	li	s9,-28
  e2:	6c617607          	0x6c617607
  e6:	0100                	addi	s0,sp,128
  e8:	2538                	fld	fa4,72(a0)
  ea:	0069                	c.nop	26
  ec:	0000                	unimp
  ee:	9102                	jalr	sp
  f0:	0858                	addi	a4,sp,20
  f2:	015e                	slli	sp,sp,0x17
  f4:	0000                	unimp
  f6:	3901                	jal	fffffd06 <_etext+0xdffff242>
  f8:	8312                	mv	t1,tp
  fa:	0000                	unimp
  fc:	0200                	addi	s0,sp,256
  fe:	6c91                	lui	s9,0x4
 100:	0900                	addi	s0,sp,144
 102:	0148                	addi	a0,sp,132
 104:	0000                	unimp
 106:	2701                	jal	806 <isr_table-0xffff7fa>
 108:	900d                	srli	s0,s0,0x23
 10a:	0002                	c.slli64	zero
 10c:	b420                	fsd	fs0,104(s0)
 10e:	0000                	unimp
 110:	0100                	addi	s0,sp,128
 112:	729c                	flw	fa5,32(a3)
 114:	0001                	nop
 116:	0a00                	addi	s0,sp,272
 118:	0120                	addi	s0,sp,136
 11a:	0000                	unimp
 11c:	2701                	jal	81c <isr_table-0xffff7e4>
 11e:	772c                	flw	fa1,104(a4)
 120:	0000                	unimp
 122:	0200                	addi	s0,sp,256
 124:	5c91                	li	s9,-28
 126:	3d0a                	fld	fs10,160(sp)
 128:	0000                	unimp
 12a:	0100                	addi	s0,sp,128
 12c:	3528                	fld	fa0,104(a0)
 12e:	00000077          	0x77
 132:	9102                	jalr	sp
 134:	0a58                	addi	a4,sp,276
 136:	000001b7          	lui	gp,0x0
 13a:	2901                	jal	54a <isr_table-0xffffab6>
 13c:	7735                	lui	a4,0xfffed
 13e:	0000                	unimp
 140:	0200                	addi	s0,sp,256
 142:	5491                	li	s1,-28
 144:	6c617607          	0x6c617607
 148:	0100                	addi	s0,sp,128
 14a:	4429                	li	s0,10
 14c:	00000077          	0x77
 150:	9102                	jalr	sp
 152:	0850                	addi	a2,sp,20
 154:	0015                	c.nop	5
 156:	0000                	unimp
 158:	2c01                	jal	368 <isr_table-0xffffc98>
 15a:	8312                	mv	t1,tp
 15c:	0000                	unimp
 15e:	0200                	addi	s0,sp,256
 160:	6c91                	lui	s9,0x4
 162:	9408                	0x9408
 164:	0001                	nop
 166:	0100                	addi	s0,sp,128
 168:	122d                	addi	tp,tp,-21
 16a:	00000083          	lb	ra,0(zero) # 0 <isr_table-0x10000000>
 16e:	9102                	jalr	sp
 170:	0068                	addi	a0,sp,12
 172:	0006                	c.slli	zero,0x1
 174:	0000                	unimp
 176:	0100                	addi	s0,sp,128
 178:	02580623          	sb	t0,44(a6)
 17c:	2000                	fld	fs0,0(s0)
 17e:	0038                	addi	a4,sp,8
 180:	0000                	unimp
 182:	9c01                	0x9c01
 184:	0198                	addi	a4,sp,192
 186:	0000                	unimp
 188:	680a                	flw	fa6,128(sp)
 18a:	01000003          	lb	zero,16(zero) # 10 <isr_table-0xffffff0>
 18e:	00771e23          	sh	t2,28(a4) # fffed01c <_etext+0xdffec558>
 192:	0000                	unimp
 194:	9102                	jalr	sp
 196:	006c                	addi	a1,sp,12
 198:	0a06                	slli	s4,s4,0x1
 19a:	0001                	nop
 19c:	0100                	addi	s0,sp,128
 19e:	061f 0220 2000      	0x20000220061f
 1a4:	0038                	addi	a4,sp,8
 1a6:	0000                	unimp
 1a8:	9c01                	0x9c01
 1aa:	01be                	slli	gp,gp,0xf
 1ac:	0000                	unimp
 1ae:	680a                	flw	fa6,128(sp)
 1b0:	01000003          	lb	zero,16(zero) # 10 <isr_table-0xffffff0>
 1b4:	201f 0077 0000      	0x77201f
 1ba:	9102                	jalr	sp
 1bc:	006c                	addi	a1,sp,12
 1be:	4e06                	lw	t3,64(sp)
 1c0:	0000                	unimp
 1c2:	0100                	addi	s0,sp,128
 1c4:	060d                	addi	a2,a2,3
 1c6:	01b4                	addi	a3,sp,200
 1c8:	2000                	fld	fs0,0(s0)
 1ca:	006c                	addi	a1,sp,12
 1cc:	0000                	unimp
 1ce:	9c01                	0x9c01
 1d0:	0211                	addi	tp,tp,4
 1d2:	0000                	unimp
 1d4:	fc0a                	fsw	ft2,56(sp)
 1d6:	0001                	nop
 1d8:	0100                	addi	s0,sp,128
 1da:	250d                	jal	7fc <isr_table-0xffff804>
 1dc:	00000077          	0x77
 1e0:	9102                	jalr	sp
 1e2:	0a5c                	addi	a5,sp,276
 1e4:	0368                	addi	a0,sp,396
 1e6:	0000                	unimp
 1e8:	0d01                	addi	s10,s10,0
 1ea:	7736                	flw	fa4,108(sp)
 1ec:	0000                	unimp
 1ee:	0200                	addi	s0,sp,256
 1f0:	5891                	li	a7,-28
 1f2:	6c617607          	0x6c617607
 1f6:	0100                	addi	s0,sp,128
 1f8:	420d                	li	tp,3
 1fa:	0211                	addi	tp,tp,4
 1fc:	0000                	unimp
 1fe:	9102                	jalr	sp
 200:	01b70857          	0x1b70857
 204:	0000                	unimp
 206:	0e01                	addi	t3,t3,0
 208:	8312                	mv	t1,tp
 20a:	0000                	unimp
 20c:	0200                	addi	s0,sp,256
 20e:	6c91                	lui	s9,0x4
 210:	0200                	addi	s0,sp,256
 212:	0201                	addi	tp,tp,0
 214:	01c8                	addi	a0,sp,196
 216:	0000                	unimp
 218:	0001bc0b          	0x1bc0b
 21c:	0100                	addi	s0,sp,128
 21e:	01700d07          	0x1700d07
 222:	2000                	fld	fs0,0(s0)
 224:	0044                	addi	s1,sp,4
 226:	0000                	unimp
 228:	9c01                	0x9c01
 22a:	025c                	addi	a5,sp,260
 22c:	0000                	unimp
 22e:	1b0a                	slli	s6,s6,0x22
 230:	0001                	nop
 232:	0100                	addi	s0,sp,128
 234:	00772207          	flw	ft4,7(a4)
 238:	0000                	unimp
 23a:	9102                	jalr	sp
 23c:	0a6c                	addi	a1,sp,284
 23e:	01fc                	addi	a5,sp,204
 240:	0000                	unimp
 242:	0701                	addi	a4,a4,0
 244:	7731                	lui	a4,0xfffec
 246:	0000                	unimp
 248:	0200                	addi	s0,sp,256
 24a:	6891                	lui	a7,0x4
 24c:	0f0a                	slli	t5,t5,0x2
 24e:	0000                	unimp
 250:	0100                	addi	s0,sp,128
 252:	2a08                	fld	fa0,16(a2)
 254:	00000077          	0x77
 258:	9102                	jalr	sp
 25a:	0064                	addi	s1,sp,12
 25c:	ae0c                	fsd	fa1,24(a2)
 25e:	0001                	nop
 260:	0100                	addi	s0,sp,128
 262:	1105                	addi	sp,sp,-31
 264:	00000077          	0x77
 268:	0144                	addi	s1,sp,132
 26a:	2000                	fld	fs0,0(s0)
 26c:	002c                	addi	a1,sp,8
 26e:	0000                	unimp
 270:	9c01                	0x9c01
 272:	680a                	flw	fa6,128(sp)
 274:	01000003          	lb	zero,16(zero) # 10 <isr_table-0xffffff0>
 278:	2805                	jal	2a8 <isr_table-0xffffd58>
 27a:	00000077          	0x77
 27e:	9102                	jalr	sp
 280:	006c                	addi	a1,sp,12
 282:	2d00                	fld	fs0,24(a0)
 284:	0005                	c.nop	1
 286:	0400                	addi	s0,sp,512
 288:	df00                	sw	s0,56(a4)
 28a:	0000                	unimp
 28c:	0400                	addi	s0,sp,512
 28e:	6401                	0x6401
 290:	0000                	unimp
 292:	0c00                	addi	s0,sp,528
 294:	0269                	addi	tp,tp,26
 296:	0000                	unimp
 298:	0174                	addi	a3,sp,140
 29a:	0000                	unimp
 29c:	03f8                	addi	a4,sp,460
 29e:	2000                	fld	fs0,0(s0)
 2a0:	04fc                	addi	a5,sp,588
 2a2:	0000                	unimp
 2a4:	0201                	addi	tp,tp,0
 2a6:	0000                	unimp
 2a8:	0102                	c.slli64	sp
 2aa:	f306                	fsw	ft1,164(sp)
 2ac:	0000                	unimp
 2ae:	0300                	addi	s0,sp,384
 2b0:	0281                	addi	t0,t0,0
 2b2:	0000                	unimp
 2b4:	2b02                	fld	fs6,0(sp)
 2b6:	3818                	fld	fa4,48(s0)
 2b8:	0000                	unimp
 2ba:	0200                	addi	s0,sp,256
 2bc:	0801                	addi	a6,a6,0
 2be:	00f1                	addi	ra,ra,28
 2c0:	0000                	unimp
 2c2:	0202                	c.slli64	tp
 2c4:	a405                	j	4e4 <isr_table-0xffffb1c>
 2c6:	0001                	nop
 2c8:	0200                	addi	s0,sp,256
 2ca:	0702                	c.slli64	a4
 2cc:	00de                	slli	ra,ra,0x17
 2ce:	0000                	unimp
 2d0:	0402                	c.slli64	s0
 2d2:	6b05                	lui	s6,0x1
 2d4:	0001                	nop
 2d6:	0300                	addi	s0,sp,384
 2d8:	00ff                	0xff
 2da:	0000                	unimp
 2dc:	4f02                	lw	t5,0(sp)
 2de:	6019                	c.lui	zero,0x6
 2e0:	0000                	unimp
 2e2:	0200                	addi	s0,sp,256
 2e4:	0704                	addi	s1,sp,896
 2e6:	0136                	slli	sp,sp,0xd
 2e8:	0000                	unimp
 2ea:	0802                	c.slli64	a6
 2ec:	6605                	lui	a2,0x1
 2ee:	0001                	nop
 2f0:	0200                	addi	s0,sp,256
 2f2:	0708                	addi	a0,sp,896
 2f4:	0131                	addi	sp,sp,12
 2f6:	0000                	unimp
 2f8:	0404                	addi	s1,sp,512
 2fa:	6905                	lui	s2,0x1
 2fc:	746e                	flw	fs0,248(sp)
 2fe:	0300                	addi	s0,sp,384
 300:	00000353          	fadd.s	ft6,ft0,ft0,rne
 304:	e802                	fsw	ft0,16(sp)
 306:	881a                	mv	a6,t1
 308:	0000                	unimp
 30a:	0200                	addi	s0,sp,256
 30c:	0704                	addi	s1,sp,896
 30e:	0000013b          	0x13b
 312:	00028303          	lb	t1,0(t0)
 316:	0300                	addi	s0,sp,384
 318:	1318                	addi	a4,sp,416
 31a:	002c                	addi	a1,sp,8
 31c:	0000                	unimp
 31e:	00010103          	lb	sp,0(sp)
 322:	0300                	addi	s0,sp,384
 324:	1430                	addi	a2,sp,552
 326:	0054                	addi	a3,sp,4
 328:	0000                	unimp
 32a:	9b05                	andi	a4,a4,-31
 32c:	0000                	unimp
 32e:	0300                	addi	s0,sp,384
 330:	0355                	addi	t1,t1,21
 332:	0000                	unimp
 334:	7c155203          	lhu	tp,1985(a0) # 400507c1 <_etext+0x2004fcfd>
 338:	0000                	unimp
 33a:	0300                	addi	s0,sp,384
 33c:	000003cb          	fnmsub.s	ft7,ft0,ft0,ft0,rne
 340:	8f04                	0x8f04
 342:	751a                	flw	fa0,164(sp)
 344:	0000                	unimp
 346:	0200                	addi	s0,sp,256
 348:	0410                	addi	a2,sp,512
 34a:	00000253          	fadd.s	ft4,ft0,ft0,rne
 34e:	00037903          	0x37903
 352:	0500                	addi	s0,sp,640
 354:	1036                	c.slli	zero,0x2d
 356:	000000d7          	0xd7
 35a:	0406                	slli	s0,s0,0x1
 35c:	00dd                	addi	ra,ra,23
 35e:	0000                	unimp
 360:	0000e807          	0xe807
 364:	0800                	addi	s0,sp,16
 366:	0000009b          	0x9b
 36a:	0900                	addi	s0,sp,144
 36c:	000000cb          	fnmsub.s	ft1,ft0,ft0,ft0,rne
 370:	00f8                	addi	a4,sp,76
 372:	0000                	unimp
 374:	880a                	mv	a6,sp
 376:	0000                	unimp
 378:	1e00                	addi	s0,sp,816
 37a:	0b00                	addi	s0,sp,400
 37c:	025f 0000 3705      	0x37050000025f
 382:	e814                	fsw	fa3,16(s0)
 384:	0000                	unimp
 386:	0c00                	addi	s0,sp,528
 388:	022a                	slli	tp,tp,0xa
 38a:	0000                	unimp
 38c:	0508                	addi	a0,sp,640
 38e:	012c104f          	fnmadd.s	ft0,fs8,fs2,ft0,rtz
 392:	0000                	unimp
 394:	b70d                	j	2b6 <isr_table-0xffffd4a>
 396:	0001                	nop
 398:	0500                	addi	s0,sp,640
 39a:	0c51                	addi	s8,s8,20
 39c:	0000009b          	0x9b
 3a0:	0d00                	addi	s0,sp,656
 3a2:	0368                	addi	a0,sp,396
 3a4:	0000                	unimp
 3a6:	5305                	li	t1,-31
 3a8:	9b0c                	0x9b0c
 3aa:	0000                	unimp
 3ac:	0400                	addi	s0,sp,512
 3ae:	0300                	addi	s0,sp,384
 3b0:	03b8                	addi	a4,sp,456
 3b2:	0000                	unimp
 3b4:	5405                	li	s0,-31
 3b6:	00010403          	lb	s0,0(sp)
 3ba:	0e00                	addi	s0,sp,784
 3bc:	00f8                	addi	a4,sp,76
 3be:	0000                	unimp
 3c0:	0a01                	addi	s4,s4,0
 3c2:	050d                	addi	a0,a0,3
 3c4:	00000003          	lb	zero,0(zero) # 0 <isr_table-0x10000000>
 3c8:	0c10                	addi	a2,sp,528
 3ca:	021c                	addi	a5,sp,256
 3cc:	0000                	unimp
 3ce:	0108                	addi	a0,sp,128
 3d0:	1034                	addi	a3,sp,40
 3d2:	016e                	slli	sp,sp,0x1b
 3d4:	0000                	unimp
 3d6:	fc0d                	bnez	s0,310 <isr_table-0xffffcf0>
 3d8:	0001                	nop
 3da:	0100                	addi	s0,sp,128
 3dc:	0d35                	addi	s10,s10,13
 3de:	00b8                	addi	a4,sp,72
 3e0:	0000                	unimp
 3e2:	0d00                	addi	s0,sp,656
 3e4:	01e0                	addi	s0,sp,204
 3e6:	0000                	unimp
 3e8:	3601                	jal	fffffee8 <_etext+0xdffff424>
 3ea:	9b0c                	0x9b0c
 3ec:	0000                	unimp
 3ee:	0400                	addi	s0,sp,512
 3f0:	0300                	addi	s0,sp,384
 3f2:	03d5                	addi	t2,t2,21
 3f4:	0000                	unimp
 3f6:	3701                	jal	2f6 <isr_table-0xffffd0a>
 3f8:	00014603          	lbu	a2,0(sp)
 3fc:	0f00                	addi	s0,sp,912
 3fe:	0318                	addi	a4,sp,384
 400:	0000                	unimp
 402:	9201                	srli	a2,a2,0x20
 404:	d406                	sw	ra,40(sp)
 406:	0008                	0x8
 408:	2020                	fld	fs0,64(s0)
 40a:	0000                	unimp
 40c:	0100                	addi	s0,sp,128
 40e:	a09c                	fsd	fa5,0(s1)
 410:	0001                	nop
 412:	1000                	addi	s0,sp,32
 414:	0000028b          	0x28b
 418:	9201                	srli	a2,a2,0x20
 41a:	00009b1b          	0x9b1b
 41e:	0200                	addi	s0,sp,256
 420:	6c91                	lui	s9,0x4
 422:	1100                	addi	s0,sp,160
 424:	00000203          	lb	tp,0(zero) # 0 <isr_table-0x10000000>
 428:	8801                	andi	s0,s0,0
 42a:	9406                	add	s0,s0,ra
 42c:	0008                	0x8
 42e:	4020                	lw	s0,64(s0)
 430:	0000                	unimp
 432:	0100                	addi	s0,sp,128
 434:	c69c                	sw	a5,8(a3)
 436:	0001                	nop
 438:	1000                	addi	s0,sp,32
 43a:	040d                	addi	s0,s0,3
 43c:	0000                	unimp
 43e:	8801                	andi	s0,s0,0
 440:	c628                	sw	a0,72(a2)
 442:	0001                	nop
 444:	0200                	addi	s0,sp,256
 446:	6c91                	lui	s9,0x4
 448:	0600                	addi	s0,sp,768
 44a:	a704                	fsd	fs1,8(a4)
 44c:	0000                	unimp
 44e:	1100                	addi	s0,sp,160
 450:	0385                	addi	t2,t2,1
 452:	0000                	unimp
 454:	8201                	c.srli64	a2
 456:	5406                	lw	s0,96(sp)
 458:	0008                	0x8
 45a:	4020                	lw	s0,64(s0)
 45c:	0000                	unimp
 45e:	0100                	addi	s0,sp,128
 460:	f29c                	fsw	fa5,32(a3)
 462:	0001                	nop
 464:	1000                	addi	s0,sp,32
 466:	036e                	slli	t1,t1,0x1b
 468:	0000                	unimp
 46a:	8201                	c.srli64	a2
 46c:	f21f 0001 0200      	0x2000001f21f
 472:	6c91                	lui	s9,0x4
 474:	0600                	addi	s0,sp,768
 476:	9b04                	0x9b04
 478:	0000                	unimp
 47a:	1100                	addi	s0,sp,160
 47c:	000002c3          	fmadd.s	ft5,ft0,ft0,ft0,rne
 480:	7001                	c.lui	zero,0xfffe0
 482:	1c06                	slli	s8,s8,0x21
 484:	0008                	0x8
 486:	3820                	fld	fs0,112(s0)
 488:	0000                	unimp
 48a:	0100                	addi	s0,sp,128
 48c:	1e9c                	addi	a5,sp,880
 48e:	0002                	c.slli64	zero
 490:	1000                	addi	s0,sp,32
 492:	0368                	addi	a0,sp,396
 494:	0000                	unimp
 496:	7001                	c.lui	zero,0xfffe0
 498:	9b25                	andi	a4,a4,-23
 49a:	0000                	unimp
 49c:	0200                	addi	s0,sp,256
 49e:	6c91                	lui	s9,0x4
 4a0:	1100                	addi	s0,sp,160
 4a2:	0298                	addi	a4,sp,320
 4a4:	0000                	unimp
 4a6:	6a01                	0x6a01
 4a8:	d006                	sw	ra,32(sp)
 4aa:	4c200007          	0x4c200007
 4ae:	0000                	unimp
 4b0:	0100                	addi	s0,sp,128
 4b2:	539c                	lw	a5,32(a5)
 4b4:	0002                	c.slli64	zero
 4b6:	1200                	addi	s0,sp,288
 4b8:	7269                	lui	tp,0xffffa
 4ba:	0071                	c.nop	28
 4bc:	6a01                	0x6a01
 4be:	9b25                	andi	a4,a4,-23
 4c0:	0000                	unimp
 4c2:	0200                	addi	s0,sp,256
 4c4:	5c91                	li	s9,-28
 4c6:	0001b713          	sltiu	a4,gp,0
 4ca:	0100                	addi	s0,sp,128
 4cc:	00a7126b          	0xa7126b
 4d0:	0000                	unimp
 4d2:	9102                	jalr	sp
 4d4:	006c                	addi	a1,sp,12
 4d6:	0511                	addi	a0,a0,4
 4d8:	01000003          	lb	zero,16(zero) # 10 <isr_table-0xffffff0>
 4dc:	0665                	addi	a2,a2,25
 4de:	0798                	addi	a4,sp,960
 4e0:	2000                	fld	fs0,0(s0)
 4e2:	0038                	addi	a4,sp,8
 4e4:	0000                	unimp
 4e6:	9c01                	0x9c01
 4e8:	0279                	addi	tp,tp,30
 4ea:	0000                	unimp
 4ec:	0e10                	addi	a2,sp,784
 4ee:	01000003          	lb	zero,16(zero) # 10 <isr_table-0xffffff0>
 4f2:	2265                	jal	69a <isr_table-0xffff966>
 4f4:	0000009b          	0x9b
 4f8:	9102                	jalr	sp
 4fa:	006c                	addi	a1,sp,12
 4fc:	f311                	bnez	a4,400 <isr_table-0xffffc00>
 4fe:	0002                	c.slli64	zero
 500:	0100                	addi	s0,sp,128
 502:	065f 0748 2000      	0x20000748065f
 508:	0050                	addi	a2,sp,4
 50a:	0000                	unimp
 50c:	9c01                	0x9c01
 50e:	02bd                	addi	t0,t0,15
 510:	0000                	unimp
 512:	6912                	flw	fs2,4(sp)
 514:	7172                	flw	ft2,60(sp)
 516:	0100                	addi	s0,sp,128
 518:	1c5f 0075 0000      	0x751c5f
 51e:	9102                	jalr	sp
 520:	105c                	addi	a5,sp,36
 522:	02fc                	addi	a5,sp,332
 524:	0000                	unimp
 526:	5f01                	li	t5,-32
 528:	9b2a                	add	s6,s6,a0
 52a:	0000                	unimp
 52c:	0200                	addi	s0,sp,256
 52e:	5891                	li	a7,-28
 530:	0001fc13          	andi	s8,gp,0
 534:	0100                	addi	s0,sp,128
 536:	0d61                	addi	s10,s10,24
 538:	00b8                	addi	a4,sp,72
 53a:	0000                	unimp
 53c:	9102                	jalr	sp
 53e:	006c                	addi	a1,sp,12
 540:	fb11                	bnez	a4,454 <isr_table-0xffffbac>
 542:	01000003          	lb	zero,16(zero) # 10 <isr_table-0xffffff0>
 546:	0654                	addi	a3,sp,772
 548:	06e4                	addi	s1,sp,844
 54a:	2000                	fld	fs0,0(s0)
 54c:	0064                	addi	s1,sp,12
 54e:	0000                	unimp
 550:	9c01                	0x9c01
 552:	0301                	addi	t1,t1,0
 554:	0000                	unimp
 556:	1510                	addi	a2,sp,672
 558:	0002                	c.slli64	zero
 55a:	0100                	addi	s0,sp,128
 55c:	3b54                	fld	fa3,176(a4)
 55e:	00ac                	addi	a1,sp,72
 560:	0000                	unimp
 562:	9102                	jalr	sp
 564:	125c                	addi	a5,sp,292
 566:	7065                	c.lui	zero,0xffff9
 568:	54010063          	beqz	sp,aa8 <isr_table-0xffff558>
 56c:	ac65                	j	824 <isr_table-0xffff7dc>
 56e:	0000                	unimp
 570:	0200                	addi	s0,sp,256
 572:	5891                	li	a7,-28
 574:	00028b13          	mv	s6,t0
 578:	0100                	addi	s0,sp,128
 57a:	0e56                	slli	t3,t3,0x15
 57c:	01f2                	slli	gp,gp,0x1c
 57e:	0000                	unimp
 580:	9102                	jalr	sp
 582:	006c                	addi	a1,sp,12
 584:	2414                	fld	fa3,8(s0)
 586:	01000003          	lb	zero,16(zero) # 10 <isr_table-0xffffff0>
 58a:	0a4a                	slli	s4,s4,0x12
 58c:	0000009b          	0x9b
 590:	06a8                	addi	a0,sp,840
 592:	2000                	fld	fs0,0(s0)
 594:	003c                	addi	a5,sp,8
 596:	0000                	unimp
 598:	9c01                	0x9c01
 59a:	033a                	slli	t1,t1,0xe
 59c:	0000                	unimp
 59e:	00023b13          	sltiu	s6,tp,0
 5a2:	0100                	addi	s0,sp,128
 5a4:	0c4c                	addi	a1,sp,532
 5a6:	01f2                	slli	gp,gp,0x1c
 5a8:	0000                	unimp
 5aa:	9102                	jalr	sp
 5ac:	136c                	addi	a1,sp,428
 5ae:	0000028b          	0x28b
 5b2:	4d01                	li	s10,0
 5b4:	00009b0b          	0x9b0b
 5b8:	0200                	addi	s0,sp,256
 5ba:	6891                	lui	a7,0x4
 5bc:	1500                	addi	s0,sp,672
 5be:	0394                	addi	a3,sp,448
 5c0:	0000                	unimp
 5c2:	4201                	li	tp,0
 5c4:	6e18                	flw	fa4,24(a2)
 5c6:	0001                	nop
 5c8:	2400                	fld	fs0,8(s0)
 5ca:	0006                	c.slli	zero,0x1
 5cc:	8420                	0x8420
 5ce:	0000                	unimp
 5d0:	0100                	addi	s0,sp,128
 5d2:	749c                	flw	fa5,40(s1)
 5d4:	12000003          	lb	zero,288(zero) # 120 <isr_table-0xffffee0>
 5d8:	7269                	lui	tp,0xffffa
 5da:	0071                	c.nop	28
 5dc:	4201                	li	tp,0
 5de:	9b3a                	add	s6,s6,a4
 5e0:	0000                	unimp
 5e2:	0300                	addi	s0,sp,384
 5e4:	bc91                	j	38 <isr_table-0xfffffc8>
 5e6:	137f                	0x137f
 5e8:	01fc                	addi	a5,sp,204
 5ea:	0000                	unimp
 5ec:	4301                	li	t1,0
 5ee:	b80d                	j	fffffe20 <_etext+0xdffff35c>
 5f0:	0000                	unimp
 5f2:	0200                	addi	s0,sp,256
 5f4:	5c91                	li	s9,-28
 5f6:	1600                	addi	s0,sp,800
 5f8:	000001d7          	0x1d7
 5fc:	3e01                	jal	10c <isr_table-0xffffef4>
 5fe:	8f10                	0x8f10
 600:	0000                	unimp
 602:	f400                	fsw	fs0,40(s0)
 604:	0005                	c.nop	1
 606:	3020                	fld	fs0,96(s0)
 608:	0000                	unimp
 60a:	0100                	addi	s0,sp,128
 60c:	9e9c                	0x9e9c
 60e:	12000003          	lb	zero,288(zero) # 120 <isr_table-0xffffee0>
 612:	7269                	lui	tp,0xffffa
 614:	0071                	c.nop	28
 616:	3e01                	jal	126 <isr_table-0xffffeda>
 618:	9b2c                	0x9b2c
 61a:	0000                	unimp
 61c:	0200                	addi	s0,sp,256
 61e:	6c91                	lui	s9,0x4
 620:	1600                	addi	s0,sp,800
 622:	03e5                	addi	t2,t2,25
 624:	0000                	unimp
 626:	3901                	jal	236 <isr_table-0xffffdca>
 628:	b812                	fsd	ft4,48(sp)
 62a:	0000                	unimp
 62c:	c000                	sw	s0,0(s0)
 62e:	0005                	c.nop	1
 630:	3420                	fld	fs0,104(s0)
 632:	0000                	unimp
 634:	0100                	addi	s0,sp,128
 636:	d79c                	sw	a5,40(a5)
 638:	12000003          	lb	zero,288(zero) # 120 <isr_table-0xffffee0>
 63c:	7269                	lui	tp,0xffffa
 63e:	0071                	c.nop	28
 640:	3901                	jal	250 <isr_table-0xffffdb0>
 642:	9b31                	andi	a4,a4,-20
 644:	0000                	unimp
 646:	0200                	addi	s0,sp,256
 648:	5c91                	li	s9,-28
 64a:	00035f13          	srli	t5,t1,0x0
 64e:	0100                	addi	s0,sp,128
 650:	0b3a                	slli	s6,s6,0xe
 652:	0000008f          	0x8f
 656:	9102                	jalr	sp
 658:	ea16006f          	j	fff614f8 <_etext+0xdff60a34>
 65c:	0001                	nop
 65e:	0100                	addi	s0,sp,128
 660:	00b8122f          	0xb8122f
 664:	0000                	unimp
 666:	058c                	addi	a1,sp,704
 668:	2000                	fld	fs0,0(s0)
 66a:	0034                	addi	a3,sp,8
 66c:	0000                	unimp
 66e:	9c01                	0x9c01
 670:	0410                	addi	a2,sp,512
 672:	0000                	unimp
 674:	6912                	flw	fs2,4(sp)
 676:	7172                	flw	ft2,60(sp)
 678:	0100                	addi	s0,sp,128
 67a:	009b342f          	0x9b342f
 67e:	0000                	unimp
 680:	9102                	jalr	sp
 682:	135c                	addi	a5,sp,420
 684:	01fc                	addi	a5,sp,204
 686:	0000                	unimp
 688:	3001                	jal	fffffe88 <_etext+0xdffff3c4>
 68a:	b80d                	j	fffffebc <_etext+0xdffff3f8>
 68c:	0000                	unimp
 68e:	0200                	addi	s0,sp,256
 690:	6c91                	lui	s9,0x4
 692:	1700                	addi	s0,sp,928
 694:	02ae                	slli	t0,t0,0xb
 696:	0000                	unimp
 698:	2701                	jal	d98 <isr_table-0xffff268>
 69a:	9b11                	andi	a4,a4,-28
 69c:	0000                	unimp
 69e:	1400                	addi	s0,sp,544
 6a0:	0005                	c.nop	1
 6a2:	7820                	flw	fs0,112(s0)
 6a4:	0000                	unimp
 6a6:	0100                	addi	s0,sp,128
 6a8:	589c                	lw	a5,48(s1)
 6aa:	0004                	0x4
 6ac:	1000                	addi	s0,sp,32
 6ae:	01ce                	slli	gp,gp,0x13
 6b0:	0000                	unimp
 6b2:	2701                	jal	db2 <isr_table-0xffff24e>
 6b4:	00009b2f          	0x9b2f
 6b8:	0200                	addi	s0,sp,256
 6ba:	5c91                	li	s9,-28
 6bc:	e010                	fsw	fa2,0(s0)
 6be:	0001                	nop
 6c0:	0100                	addi	s0,sp,128
 6c2:	2f28                	fld	fa0,88(a4)
 6c4:	0000009b          	0x9b
 6c8:	9102                	jalr	sp
 6ca:	1058                	addi	a4,sp,36
 6cc:	0000000f          	fence	unknown,unknown
 6d0:	2901                	jal	ae0 <isr_table-0xffff520>
 6d2:	0004582b          	0x4582b
 6d6:	0200                	addi	s0,sp,256
 6d8:	5791                	li	a5,-28
 6da:	0200                	addi	s0,sp,256
 6dc:	0201                	addi	tp,tp,0
 6de:	01c8                	addi	a0,sp,196
 6e0:	0000                	unimp
 6e2:	3c14                	fld	fa3,56(s0)
 6e4:	01000003          	lb	zero,16(zero) # 10 <isr_table-0xffffff0>
 6e8:	111f 009b 0000      	0x9b111f
 6ee:	04a8                	addi	a0,sp,584
 6f0:	2000                	fld	fs0,0(s0)
 6f2:	006c                	addi	a1,sp,12
 6f4:	0000                	unimp
 6f6:	9c01                	0x9c01
 6f8:	000004a7          	0x4a7
 6fc:	ce10                	sw	a2,24(a2)
 6fe:	0001                	nop
 700:	0100                	addi	s0,sp,128
 702:	311f 009b 0000      	0x9b311f
 708:	9102                	jalr	sp
 70a:	106c                	addi	a1,sp,44
 70c:	01d1                	addi	gp,gp,20
 70e:	0000                	unimp
 710:	2001                	jal	710 <isr_table-0xffff8f0>
 712:	00012c3b          	0x12c3b
 716:	0200                	addi	s0,sp,256
 718:	6491                	lui	s1,0x4
 71a:	0f10                	addi	a2,sp,912
 71c:	0000                	unimp
 71e:	0100                	addi	s0,sp,128
 720:	3121                	jal	328 <isr_table-0xffffcd8>
 722:	0000009b          	0x9b
 726:	9102                	jalr	sp
 728:	0060                	addi	s0,sp,12
 72a:	d914                	sw	a3,48(a0)
 72c:	0002                	c.slli64	zero
 72e:	0100                	addi	s0,sp,128
 730:	1b18                	addi	a4,sp,432
 732:	012c                	addi	a1,sp,136
 734:	0000                	unimp
 736:	045c                	addi	a5,sp,516
 738:	2000                	fld	fs0,0(s0)
 73a:	004c                	addi	a1,sp,4
 73c:	0000                	unimp
 73e:	9c01                	0x9c01
 740:	04d1                	addi	s1,s1,20
 742:	0000                	unimp
 744:	e010                	fsw	fa2,0(s0)
 746:	0001                	nop
 748:	0100                	addi	s0,sp,128
 74a:	0e19                	addi	t3,t3,6
 74c:	0000009b          	0x9b
 750:	9102                	jalr	sp
 752:	005c                	addi	a5,sp,4
 754:	ad14                	fsd	fa3,24(a0)
 756:	01000003          	lb	zero,16(zero) # 10 <isr_table-0xffffff0>
 75a:	1114                	addi	a3,sp,160
 75c:	0000009b          	0x9b
 760:	0424                	addi	s1,sp,520
 762:	2000                	fld	fs0,0(s0)
 764:	0038                	addi	a4,sp,8
 766:	0000                	unimp
 768:	9c01                	0x9c01
 76a:	050a                	slli	a0,a0,0x2
 76c:	0000                	unimp
 76e:	1b10                	addi	a2,sp,432
 770:	0001                	nop
 772:	0100                	addi	s0,sp,128
 774:	2514                	fld	fa3,8(a0)
 776:	0000009b          	0x9b
 77a:	9102                	jalr	sp
 77c:	106c                	addi	a1,sp,44
 77e:	01fc                	addi	a5,sp,204
 780:	0000                	unimp
 782:	1401                	addi	s0,s0,-32
 784:	b835                	j	ffffffc0 <_etext+0xdffff4fc>
 786:	0000                	unimp
 788:	0200                	addi	s0,sp,256
 78a:	6891                	lui	a7,0x4
 78c:	1800                	addi	s0,sp,48
 78e:	01ae                	slli	gp,gp,0xb
 790:	0000                	unimp
 792:	0d01                	addi	s10,s10,0
 794:	9b11                	andi	a4,a4,-28
 796:	0000                	unimp
 798:	f800                	fsw	fs0,48(s0)
 79a:	2c200003          	lb	zero,706(zero) # 2c2 <isr_table-0xffffd3e>
 79e:	0000                	unimp
 7a0:	0100                	addi	s0,sp,128
 7a2:	109c                	addi	a5,sp,96
 7a4:	0368                	addi	a0,sp,396
 7a6:	0000                	unimp
 7a8:	0d01                	addi	s10,s10,0
 7aa:	9b28                	0x9b28
 7ac:	0000                	unimp
 7ae:	0200                	addi	s0,sp,256
 7b0:	6c91                	lui	s9,0x4
 7b2:	0000                	unimp
 7b4:	0108                	addi	a0,sp,128
 7b6:	0000                	unimp
 7b8:	0004                	0x4
 7ba:	00000287          	0x287
 7be:	0104                	addi	s1,sp,128
 7c0:	0064                	addi	s1,sp,12
 7c2:	0000                	unimp
 7c4:	250c                	fld	fa1,8(a0)
 7c6:	0004                	0x4
 7c8:	7400                	flw	fs0,40(s0)
 7ca:	0001                	nop
 7cc:	f400                	fsw	fs0,40(s0)
 7ce:	0008                	0x8
 7d0:	6820                	flw	fs0,80(s0)
 7d2:	0000                	unimp
 7d4:	b600                	fsd	fs0,40(a2)
 7d6:	0005                	c.nop	1
 7d8:	0200                	addi	s0,sp,256
 7da:	0601                	addi	a2,a2,0
 7dc:	000000f3          	0xf3
 7e0:	0102                	c.slli64	sp
 7e2:	f108                	fsw	fa0,32(a0)
 7e4:	0000                	unimp
 7e6:	0200                	addi	s0,sp,256
 7e8:	0502                	c.slli64	a0
 7ea:	01a4                	addi	s1,sp,200
 7ec:	0000                	unimp
 7ee:	0202                	c.slli64	tp
 7f0:	0000de07          	0xde07
 7f4:	0200                	addi	s0,sp,256
 7f6:	0504                	addi	s1,sp,640
 7f8:	0000016b          	0x16b
 7fc:	0402                	c.slli64	s0
 7fe:	00013607          	fld	fa2,0(sp)
 802:	0200                	addi	s0,sp,256
 804:	0508                	addi	a0,sp,640
 806:	0166                	slli	sp,sp,0x19
 808:	0000                	unimp
 80a:	0802                	c.slli64	a6
 80c:	00013107          	fld	ft2,0(sp)
 810:	0300                	addi	s0,sp,384
 812:	0504                	addi	s1,sp,640
 814:	6e69                	lui	t3,0x1a
 816:	0074                	addi	a3,sp,12
 818:	5304                	lw	s1,32(a4)
 81a:	02000003          	lb	zero,32(zero) # 20 <isr_table-0xfffffe0>
 81e:	1ae8                	addi	a0,sp,380
 820:	0070                	addi	a2,sp,12
 822:	0000                	unimp
 824:	0402                	c.slli64	s0
 826:	00013b07          	fld	fs6,0(sp)
 82a:	0400                	addi	s0,sp,512
 82c:	0355                	addi	t1,t1,21
 82e:	0000                	unimp
 830:	64155203          	lhu	tp,1601(a0)
 834:	0000                	unimp
 836:	0400                	addi	s0,sp,512
 838:	044c                	addi	a1,sp,516
 83a:	0000                	unimp
 83c:	0d04                	addi	s1,sp,656
 83e:	8f10                	0x8f10
 840:	0000                	unimp
 842:	0500                	addi	s0,sp,640
 844:	9504                	0x9504
 846:	0000                	unimp
 848:	0600                	addi	s0,sp,768
 84a:	00a5                	addi	ra,ra,9
 84c:	0000                	unimp
 84e:	00007707          	0x7707
 852:	0700                	addi	s0,sp,896
 854:	00000077          	0x77
 858:	0800                	addi	s0,sp,16
 85a:	00000083          	lb	ra,0(zero) # 0 <isr_table-0x10000000>
 85e:	00b5                	addi	ra,ra,13
 860:	0000                	unimp
 862:	7009                	c.lui	zero,0xfffe2
 864:	0000                	unimp
 866:	0f00                	addi	s0,sp,912
 868:	0a00                	addi	s0,sp,272
 86a:	0435                	addi	s0,s0,13
 86c:	0000                	unimp
 86e:	0e04                	addi	s1,sp,784
 870:	a515                	j	e94 <isr_table-0xffff16c>
 872:	0000                	unimp
 874:	0a00                	addi	s0,sp,272
 876:	0459                	addi	s0,s0,22
 878:	0000                	unimp
 87a:	0f04                	addi	s1,sp,912
 87c:	a515                	j	ea0 <isr_table-0xffff160>
 87e:	0000                	unimp
 880:	0200                	addi	s0,sp,256
 882:	0410                	addi	a2,sp,512
 884:	00000253          	fadd.s	ft4,ft0,ft0,rne
 888:	0004200b          	0x4200b
 88c:	0100                	addi	s0,sp,128
 88e:	060a                	slli	a2,a2,0x2
 890:	0930                	addi	a2,sp,152
 892:	2000                	fld	fs0,0(s0)
 894:	002c                	addi	a1,sp,8
 896:	0000                	unimp
 898:	9c01                	0x9c01
 89a:	00f9                	addi	ra,ra,30
 89c:	0000                	unimp
 89e:	470c                	lw	a1,8(a4)
 8a0:	0004                	0x4
 8a2:	0100                	addi	s0,sp,128
 8a4:	050c                	addi	a1,sp,640
 8a6:	005d                	c.nop	23
 8a8:	0000                	unimp
 8aa:	000d                	c.nop	3
 8ac:	0e00                	addi	s0,sp,784
 8ae:	0000041b          	0x41b
 8b2:	0501                	addi	a0,a0,0
 8b4:	f40d                	bnez	s0,7de <isr_table-0xffff822>
 8b6:	0008                	0x8
 8b8:	3c20                	fld	fs0,120(s0)
 8ba:	0000                	unimp
 8bc:	0100                	addi	s0,sp,128
 8be:	009c                	addi	a5,sp,64
 8c0:	01cd                	addi	gp,gp,19
 8c2:	0000                	unimp
 8c4:	0004                	0x4
 8c6:	0346                	slli	t1,t1,0x11
 8c8:	0000                	unimp
 8ca:	0104                	addi	s1,sp,128
 8cc:	0064                	addi	s1,sp,12
 8ce:	0000                	unimp
 8d0:	bf0c                	fsd	fa1,56(a4)
 8d2:	0004                	0x4
 8d4:	7400                	flw	fs0,40(s0)
 8d6:	0001                	nop
 8d8:	5c00                	lw	s0,56(s0)
 8da:	0009                	c.nop	2
 8dc:	9c20                	0x9c20
 8de:	0000                	unimp
 8e0:	c100                	sw	s0,0(a0)
 8e2:	0006                	c.slli	zero,0x1
 8e4:	0200                	addi	s0,sp,256
 8e6:	0601                	addi	a2,a2,0
 8e8:	000000f3          	0xf3
 8ec:	0102                	c.slli64	sp
 8ee:	f108                	fsw	fa0,32(a0)
 8f0:	0000                	unimp
 8f2:	0200                	addi	s0,sp,256
 8f4:	0502                	c.slli64	a0
 8f6:	01a4                	addi	s1,sp,200
 8f8:	0000                	unimp
 8fa:	0202                	c.slli64	tp
 8fc:	0000de07          	0xde07
 900:	0200                	addi	s0,sp,256
 902:	0504                	addi	s1,sp,640
 904:	0000016b          	0x16b
 908:	0000ff03          	0xff03
 90c:	0200                	addi	s0,sp,256
 90e:	0054194f          	fnmadd.s	fs2,fs0,ft5,ft0,rtz
 912:	0000                	unimp
 914:	0402                	c.slli64	s0
 916:	00013607          	fld	fa2,0(sp)
 91a:	0200                	addi	s0,sp,256
 91c:	0508                	addi	a0,sp,640
 91e:	0166                	slli	sp,sp,0x19
 920:	0000                	unimp
 922:	0802                	c.slli64	a6
 924:	00013107          	fld	ft2,0(sp)
 928:	0400                	addi	s0,sp,512
 92a:	0504                	addi	s1,sp,640
 92c:	6e69                	lui	t3,0x1a
 92e:	0074                	addi	a3,sp,12
 930:	00035303          	lhu	t1,0(t1) # ffffa000 <_etext+0xdfff953c>
 934:	0200                	addi	s0,sp,256
 936:	1ae8                	addi	a0,sp,380
 938:	007c                	addi	a5,sp,12
 93a:	0000                	unimp
 93c:	0402                	c.slli64	s0
 93e:	00013b07          	fld	fs6,0(sp)
 942:	0300                	addi	s0,sp,384
 944:	0101                	addi	sp,sp,0
 946:	0000                	unimp
 948:	48143003          	0x48143003
 94c:	0000                	unimp
 94e:	0300                	addi	s0,sp,384
 950:	0355                	addi	t1,t1,21
 952:	0000                	unimp
 954:	70155203          	lhu	tp,1793(a0)
 958:	0000                	unimp
 95a:	0300                	addi	s0,sp,384
 95c:	044c                	addi	a1,sp,516
 95e:	0000                	unimp
 960:	0d04                	addi	s1,sp,656
 962:	a710                	fsd	fa2,8(a4)
 964:	0000                	unimp
 966:	0500                	addi	s0,sp,640
 968:	ad04                	fsd	fs1,24(a0)
 96a:	0000                	unimp
 96c:	0600                	addi	s0,sp,768
 96e:	00bd                	addi	ra,ra,15
 970:	0000                	unimp
 972:	00008f07          	0x8f07
 976:	0700                	addi	s0,sp,896
 978:	0000008f          	0x8f
 97c:	0800                	addi	s0,sp,16
 97e:	0000009b          	0x9b
 982:	00cd                	addi	ra,ra,19
 984:	0000                	unimp
 986:	7c09                	lui	s8,0xfffe2
 988:	0000                	unimp
 98a:	0f00                	addi	s0,sp,912
 98c:	0a00                	addi	s0,sp,272
 98e:	0435                	addi	s0,s0,13
 990:	0000                	unimp
 992:	0e04                	addi	s1,sp,784
 994:	bd15                	j	7c8 <isr_table-0xffff838>
 996:	0000                	unimp
 998:	0a00                	addi	s0,sp,272
 99a:	0459                	addi	s0,s0,22
 99c:	0000                	unimp
 99e:	0f04                	addi	s1,sp,912
 9a0:	bd15                	j	7d4 <isr_table-0xffff82c>
 9a2:	0000                	unimp
 9a4:	0b00                	addi	s0,sp,400
 9a6:	00cd                	addi	ra,ra,19
 9a8:	0000                	unimp
 9aa:	0201                	addi	tp,tp,0
 9ac:	050e                	slli	a0,a0,0x3
 9ae:	00007c03          	0x7c03
 9b2:	0b10                	addi	a2,sp,400
 9b4:	00d9                	addi	ra,ra,22
 9b6:	0000                	unimp
 9b8:	0301                	addi	t1,t1,0
 9ba:	050e                	slli	a0,a0,0x3
 9bc:	0000bc03          	0xbc03
 9c0:	0c10                	addi	a2,sp,528
 9c2:	048d                	addi	s1,s1,3
 9c4:	0000                	unimp
 9c6:	1001                	c.nop	-32
 9c8:	00008f0b          	0x8f0b
 9cc:	ac00                	fsd	fs0,24(s0)
 9ce:	0009                	c.nop	2
 9d0:	4c20                	lw	s0,88(s0)
 9d2:	0000                	unimp
 9d4:	0100                	addi	s0,sp,128
 9d6:	669c                	flw	fa5,8(a3)
 9d8:	0001                	nop
 9da:	0d00                	addi	s0,sp,656
 9dc:	0499                	addi	s1,s1,6
 9de:	0000                	unimp
 9e0:	1001                	c.nop	-32
 9e2:	8f21                	xor	a4,a4,s0
 9e4:	0000                	unimp
 9e6:	0200                	addi	s0,sp,256
 9e8:	5c91                	li	s9,-28
 9ea:	650e                	flw	fa0,192(sp)
 9ec:	6370                	flw	fa2,68(a4)
 9ee:	0100                	addi	s0,sp,128
 9f0:	3310                	fld	fa2,32(a4)
 9f2:	0000008f          	0x8f
 9f6:	9102                	jalr	sp
 9f8:	0f58                	addi	a4,sp,916
 9fa:	000004cf          	fnmadd.s	fs1,ft0,ft0,ft0,rne
 9fe:	1201                	addi	tp,tp,-32
 a00:	00007c0f          	0x7c0f
 a04:	0200                	addi	s0,sp,256
 a06:	6c91                	lui	s9,0x4
 a08:	0004800f          	0x4800f
 a0c:	0100                	addi	s0,sp,128
 a0e:	00830b13          	addi	s6,t1,8
 a12:	0000                	unimp
 a14:	9102                	jalr	sp
 a16:	1068                	addi	a0,sp,44
 a18:	000003fb          	0x3fb
 a1c:	1601                	addi	a2,a2,-32
 a1e:	6902                	flw	fs2,0(sp)
 a20:	0000                	unimp
 a22:	1100                	addi	s0,sp,160
 a24:	0000                	unimp
 a26:	af12                	fsd	ft4,408(sp)
 a28:	0004                	0x4
 a2a:	0100                	addi	s0,sp,128
 a2c:	0994060b          	0x994060b
 a30:	2000                	fld	fs0,0(s0)
 a32:	0018                	0x18
 a34:	0000                	unimp
 a36:	9c01                	0x9c01
 a38:	0000019b          	0x19b
 a3c:	990d                	andi	a0,a0,-29
 a3e:	0004                	0x4
 a40:	0100                	addi	s0,sp,128
 a42:	008f380b          	0x8f380b
 a46:	0000                	unimp
 a48:	9102                	jalr	sp
 a4a:	0e6c                	addi	a1,sp,796
 a4c:	7065                	c.lui	zero,0xffff9
 a4e:	0b010063          	beq	sp,a6,aee <isr_table-0xffff512>
 a52:	8f62                	mv	t5,s8
 a54:	0000                	unimp
 a56:	0200                	addi	s0,sp,256
 a58:	6891                	lui	a7,0x4
 a5a:	1300                	addi	s0,sp,416
 a5c:	0470                	addi	a2,sp,524
 a5e:	0000                	unimp
 a60:	0501                	addi	a0,a0,0
 a62:	7c0e                	flw	fs8,224(sp)
 a64:	0000                	unimp
 a66:	5c00                	lw	s0,56(s0)
 a68:	0009                	c.nop	2
 a6a:	3820                	fld	fs0,112(s0)
 a6c:	0000                	unimp
 a6e:	0100                	addi	s0,sp,128
 a70:	0e9c                	addi	a5,sp,848
 a72:	756e                	flw	fa0,248(sp)
 a74:	006d                	c.nop	27
 a76:	0501                	addi	a0,a0,0
 a78:	00007c2b          	0x7c2b
 a7c:	0200                	addi	s0,sp,256
 a7e:	5c91                	li	s9,-28
 a80:	0004a00f          	0x4a00f
 a84:	0100                	addi	s0,sp,128
 a86:	007c0f07          	0x7c0f07
 a8a:	0000                	unimp
 a8c:	9102                	jalr	sp
 a8e:	006c                	addi	a1,sp,12
 a90:	1300                	addi	s0,sp,416
 a92:	0001                	nop
 a94:	0400                	addi	s0,sp,512
 a96:	6d00                	flw	fs0,24(a0)
 a98:	0004                	0x4
 a9a:	0400                	addi	s0,sp,512
 a9c:	6401                	0x6401
 a9e:	0000                	unimp
 aa0:	0c00                	addi	s0,sp,528
 aa2:	04d8                	addi	a4,sp,580
 aa4:	0000                	unimp
 aa6:	0174                	addi	a3,sp,140
 aa8:	0000                	unimp
 aaa:	09f8                	addi	a4,sp,220
 aac:	2000                	fld	fs0,0(s0)
 aae:	00cc                	addi	a1,sp,68
 ab0:	0000                	unimp
 ab2:	07f8                	addi	a4,sp,972
 ab4:	0000                	unimp
 ab6:	0102                	c.slli64	sp
 ab8:	f306                	fsw	ft1,164(sp)
 aba:	0000                	unimp
 abc:	0200                	addi	s0,sp,256
 abe:	0801                	addi	a6,a6,0
 ac0:	00f1                	addi	ra,ra,28
 ac2:	0000                	unimp
 ac4:	0202                	c.slli64	tp
 ac6:	a405                	j	ce6 <isr_table-0xffff31a>
 ac8:	0001                	nop
 aca:	0200                	addi	s0,sp,256
 acc:	0702                	c.slli64	a4
 ace:	00de                	slli	ra,ra,0x17
 ad0:	0000                	unimp
 ad2:	0402                	c.slli64	s0
 ad4:	6b05                	lui	s6,0x1
 ad6:	0001                	nop
 ad8:	0300                	addi	s0,sp,384
 ada:	00ff                	0xff
 adc:	0000                	unimp
 ade:	4f02                	lw	t5,0(sp)
 ae0:	5419                	li	s0,-26
 ae2:	0000                	unimp
 ae4:	0200                	addi	s0,sp,256
 ae6:	0704                	addi	s1,sp,896
 ae8:	0136                	slli	sp,sp,0xd
 aea:	0000                	unimp
 aec:	0802                	c.slli64	a6
 aee:	6605                	lui	a2,0x1
 af0:	0001                	nop
 af2:	0200                	addi	s0,sp,256
 af4:	0708                	addi	a0,sp,896
 af6:	0131                	addi	sp,sp,12
 af8:	0000                	unimp
 afa:	0404                	addi	s1,sp,512
 afc:	6905                	lui	s2,0x1
 afe:	746e                	flw	fs0,248(sp)
 b00:	0200                	addi	s0,sp,256
 b02:	0704                	addi	s1,sp,896
 b04:	0000013b          	0x13b
 b08:	00010103          	lb	sp,0(sp)
 b0c:	0300                	addi	s0,sp,384
 b0e:	1430                	addi	a2,sp,552
 b10:	0048                	addi	a0,sp,4
 b12:	0000                	unimp
 b14:	1002                	c.slli	zero,0x20
 b16:	5304                	lw	s1,32(a4)
 b18:	0002                	c.slli64	zero
 b1a:	0300                	addi	s0,sp,384
 b1c:	0379                	addi	t1,t1,30
 b1e:	0000                	unimp
 b20:	3604                	fld	fs1,40(a2)
 b22:	9610                	0x9610
 b24:	0000                	unimp
 b26:	0500                	addi	s0,sp,640
 b28:	9c04                	0x9c04
 b2a:	0000                	unimp
 b2c:	0600                	addi	s0,sp,768
 b2e:	000000a7          	0xa7
 b32:	00007707          	0x7707
 b36:	0000                	unimp
 b38:	8a08                	0x8a08
 b3a:	0000                	unimp
 b3c:	b700                	fsd	fs0,40(a4)
 b3e:	0000                	unimp
 b40:	0900                	addi	s0,sp,144
 b42:	0070                	addi	a2,sp,12
 b44:	0000                	unimp
 b46:	001e                	c.slli	zero,0x7
 b48:	5f0a                	lw	t5,160(sp)
 b4a:	0002                	c.slli64	zero
 b4c:	0400                	addi	s0,sp,512
 b4e:	00a71437          	lui	s0,0xa71
 b52:	0000                	unimp
 b54:	0004470b          	0x4470b
 b58:	0100                	addi	s0,sp,128
 b5a:	0530                	addi	a2,sp,648
 b5c:	0069                	c.nop	26
 b5e:	0000                	unimp
 b60:	0a2c                	addi	a1,sp,280
 b62:	2000                	fld	fs0,0(s0)
 b64:	0098                	addi	a4,sp,64
 b66:	0000                	unimp
 b68:	9c01                	0x9c01
 b6a:	00f4                	addi	a3,sp,76
 b6c:	0000                	unimp
 b6e:	f80c                	fsw	fa1,48(s0)
 b70:	0004                	0x4
 b72:	0100                	addi	s0,sp,128
 b74:	1831                	addi	a6,a6,-20
 b76:	0070                	addi	a2,sp,12
 b78:	0000                	unimp
 b7a:	690d                	lui	s2,0x3
 b7c:	0100                	addi	s0,sp,128
 b7e:	0632                	slli	a2,a2,0xc
 b80:	0069                	c.nop	26
 b82:	0000                	unimp
 b84:	0e00                	addi	s0,sp,784
 b86:	04ff                	0x4ff
 b88:	0000                	unimp
 b8a:	2901                	jal	f9a <isr_table-0xffff066>
 b8c:	f806                	fsw	ft1,48(sp)
 b8e:	0009                	c.nop	2
 b90:	3420                	fld	fs0,104(s0)
 b92:	0000                	unimp
 b94:	0100                	addi	s0,sp,128
 b96:	0f9c                	addi	a5,sp,976
 b98:	756e                	flw	fa0,248(sp)
 b9a:	006d                	c.nop	27
 b9c:	2901                	jal	fac <isr_table-0xffff054>
 b9e:	0000773b          	0x773b
 ba2:	0200                	addi	s0,sp,256
 ba4:	6c91                	lui	s9,0x4
 ba6:	0000                	unimp

Disassembly of section .debug_abbrev:

00000000 <.debug_abbrev>:
   0:	1101                	addi	sp,sp,-32
   2:	2501                	jal	602 <isr_table-0xffff9fe>
   4:	130e                	slli	t1,t1,0x23
   6:	1b0e030b          	0x1b0e030b
   a:	110e                	slli	sp,sp,0x23
   c:	1201                	addi	tp,tp,-32
   e:	1006                	c.slli	zero,0x21
  10:	02000017          	auipc	zero,0x2000
  14:	0024                	addi	s1,sp,8
  16:	0b3e0b0b          	0xb3e0b0b
  1a:	00000e03          	lb	t3,0(zero) # 0 <isr_table-0x10000000>
  1e:	03001603          	lh	a2,48(zero) # 30 <isr_table-0xfffffd0>
  22:	3a0e                	fld	fs4,224(sp)
  24:	390b3b0b          	0x390b3b0b
  28:	0013490b          	0x13490b
  2c:	0400                	addi	s0,sp,512
  2e:	0024                	addi	s1,sp,8
  30:	0b3e0b0b          	0xb3e0b0b
  34:	00000803          	lb	a6,0(zero) # 0 <isr_table-0x10000000>
  38:	2605                	jal	358 <isr_table-0xffffca8>
  3a:	4900                	lw	s0,16(a0)
  3c:	06000013          	li	zero,96
  40:	012e                	slli	sp,sp,0xb
  42:	0e03193f 0b3b0b3a 	0xb3b0b3a0e03193f
  4a:	0b39                	addi	s6,s6,14
  4c:	01111927          	0x1111927
  50:	0612                	slli	a2,a2,0x4
  52:	1840                	addi	s0,sp,52
  54:	4296                	lw	t0,68(sp)
  56:	0119                	addi	sp,sp,6
  58:	07000013          	li	zero,112
  5c:	0005                	c.nop	1
  5e:	0b3a0803          	lb	a6,179(s4)
  62:	0b390b3b          	0xb390b3b
  66:	1349                	addi	t1,t1,-14
  68:	1802                	slli	a6,a6,0x20
  6a:	0000                	unimp
  6c:	3408                	fld	fa0,40(s0)
  6e:	0300                	addi	s0,sp,384
  70:	3a0e                	fld	fs4,224(sp)
  72:	390b3b0b          	0x390b3b0b
  76:	0213490b          	0x213490b
  7a:	0018                	0x18
  7c:	0900                	addi	s0,sp,144
  7e:	012e                	slli	sp,sp,0xb
  80:	0b3a0e03          	lb	t3,179(s4)
  84:	0b390b3b          	0xb390b3b
  88:	01111927          	0x1111927
  8c:	0612                	slli	a2,a2,0x4
  8e:	1840                	addi	s0,sp,52
  90:	4296                	lw	t0,68(sp)
  92:	0119                	addi	sp,sp,6
  94:	0a000013          	li	zero,160
  98:	0005                	c.nop	1
  9a:	0b3a0e03          	lb	t3,179(s4)
  9e:	0b390b3b          	0xb390b3b
  a2:	1349                	addi	t1,t1,-14
  a4:	1802                	slli	a6,a6,0x20
  a6:	0000                	unimp
  a8:	3f012e0b          	0x3f012e0b
  ac:	0319                	addi	t1,t1,6
  ae:	3a0e                	fld	fs4,224(sp)
  b0:	390b3b0b          	0x390b3b0b
  b4:	1119270b          	0x1119270b
  b8:	1201                	addi	tp,tp,-32
  ba:	4006                	0x4006
  bc:	9718                	0x9718
  be:	1942                	slli	s2,s2,0x30
  c0:	1301                	addi	t1,t1,-32
  c2:	0000                	unimp
  c4:	2e0c                	fld	fa1,24(a2)
  c6:	0301                	addi	t1,t1,0
  c8:	3a0e                	fld	fs4,224(sp)
  ca:	390b3b0b          	0x390b3b0b
  ce:	4919270b          	0x4919270b
  d2:	12011113          	0x12011113
  d6:	4006                	0x4006
  d8:	9718                	0x9718
  da:	1942                	slli	s2,s2,0x30
  dc:	0000                	unimp
  de:	0100                	addi	s0,sp,128
  e0:	0111                	addi	sp,sp,4
  e2:	0e25                	addi	t3,t3,9
  e4:	0e030b13          	addi	s6,t1,224
  e8:	01110e1b          	0x1110e1b
  ec:	0612                	slli	a2,a2,0x4
  ee:	1710                	addi	a2,sp,928
  f0:	0000                	unimp
  f2:	2402                	fld	fs0,0(sp)
  f4:	0b00                	addi	s0,sp,400
  f6:	030b3e0b          	0x30b3e0b
  fa:	000e                	c.slli	zero,0x3
  fc:	0300                	addi	s0,sp,384
  fe:	0016                	c.slli	zero,0x5
 100:	0b3a0e03          	lb	t3,179(s4)
 104:	0b390b3b          	0xb390b3b
 108:	1349                	addi	t1,t1,-14
 10a:	0000                	unimp
 10c:	2404                	fld	fs1,8(s0)
 10e:	0b00                	addi	s0,sp,400
 110:	030b3e0b          	0x30b3e0b
 114:	0008                	0x8
 116:	0500                	addi	s0,sp,640
 118:	0026                	c.slli	zero,0x9
 11a:	1349                	addi	t1,t1,-14
 11c:	0000                	unimp
 11e:	0f06                	slli	t5,t5,0x1
 120:	0b00                	addi	s0,sp,400
 122:	0013490b          	0x13490b
 126:	0700                	addi	s0,sp,896
 128:	0115                	addi	sp,sp,5
 12a:	13011927          	0x13011927
 12e:	0000                	unimp
 130:	0508                	addi	a0,sp,640
 132:	4900                	lw	s0,16(a0)
 134:	09000013          	li	zero,144
 138:	0101                	addi	sp,sp,0
 13a:	1349                	addi	t1,t1,-14
 13c:	1301                	addi	t1,t1,-32
 13e:	0000                	unimp
 140:	210a                	fld	ft2,128(sp)
 142:	4900                	lw	s0,16(a0)
 144:	000b2f13          	slti	t5,s6,0
 148:	0b00                	addi	s0,sp,400
 14a:	0034                	addi	a3,sp,8
 14c:	0b3a0e03          	lb	t3,179(s4)
 150:	0b390b3b          	0xb390b3b
 154:	1349                	addi	t1,t1,-14
 156:	193c193f 130c0000 	0x130c0000193c193f
 15e:	0301                	addi	t1,t1,0
 160:	0b0e                	slli	s6,s6,0x3
 162:	3b0b3a0b          	0x3b0b3a0b
 166:	010b390b          	0x10b390b
 16a:	0d000013          	li	zero,208
 16e:	000d                	c.nop	3
 170:	0b3a0e03          	lb	t3,179(s4)
 174:	0b390b3b          	0xb390b3b
 178:	1349                	addi	t1,t1,-14
 17a:	0b38                	addi	a4,sp,408
 17c:	0000                	unimp
 17e:	340e                	fld	fs0,224(sp)
 180:	4700                	lw	s0,8(a4)
 182:	3b0b3a13          	sltiu	s4,s6,944
 186:	020b390b          	0x20b390b
 18a:	0018                	0x18
 18c:	0f00                	addi	s0,sp,912
 18e:	012e                	slli	sp,sp,0xb
 190:	0e03193f 0b3b0b3a 	0xb3b0b3a0e03193f
 198:	0b39                	addi	s6,s6,14
 19a:	01111927          	0x1111927
 19e:	0612                	slli	a2,a2,0x4
 1a0:	1840                	addi	s0,sp,52
 1a2:	01194297          	auipc	t0,0x1194
 1a6:	10000013          	li	zero,256
 1aa:	0005                	c.nop	1
 1ac:	0b3a0e03          	lb	t3,179(s4)
 1b0:	0b390b3b          	0xb390b3b
 1b4:	1349                	addi	t1,t1,-14
 1b6:	1802                	slli	a6,a6,0x20
 1b8:	0000                	unimp
 1ba:	2e11                	jal	4ce <isr_table-0xffffb32>
 1bc:	3f01                	jal	cc <isr_table-0xfffff34>
 1be:	0319                	addi	t1,t1,6
 1c0:	3a0e                	fld	fs4,224(sp)
 1c2:	390b3b0b          	0x390b3b0b
 1c6:	1119270b          	0x1119270b
 1ca:	1201                	addi	tp,tp,-32
 1cc:	4006                	0x4006
 1ce:	9618                	0x9618
 1d0:	1942                	slli	s2,s2,0x30
 1d2:	1301                	addi	t1,t1,-32
 1d4:	0000                	unimp
 1d6:	0512                	slli	a0,a0,0x4
 1d8:	0300                	addi	s0,sp,384
 1da:	3a08                	fld	fa0,48(a2)
 1dc:	390b3b0b          	0x390b3b0b
 1e0:	0213490b          	0x213490b
 1e4:	0018                	0x18
 1e6:	1300                	addi	s0,sp,416
 1e8:	0034                	addi	a3,sp,8
 1ea:	0b3a0e03          	lb	t3,179(s4)
 1ee:	0b390b3b          	0xb390b3b
 1f2:	1349                	addi	t1,t1,-14
 1f4:	1802                	slli	a6,a6,0x20
 1f6:	0000                	unimp
 1f8:	2e14                	fld	fa3,24(a2)
 1fa:	3f01                	jal	10a <isr_table-0xffffef6>
 1fc:	0319                	addi	t1,t1,6
 1fe:	3a0e                	fld	fs4,224(sp)
 200:	390b3b0b          	0x390b3b0b
 204:	4919270b          	0x4919270b
 208:	12011113          	0x12011113
 20c:	4006                	0x4006
 20e:	9718                	0x9718
 210:	1942                	slli	s2,s2,0x30
 212:	1301                	addi	t1,t1,-32
 214:	0000                	unimp
 216:	2e15                	jal	54a <isr_table-0xffffab6>
 218:	0301                	addi	t1,t1,0
 21a:	3a0e                	fld	fs4,224(sp)
 21c:	390b3b0b          	0x390b3b0b
 220:	4919270b          	0x4919270b
 224:	12011113          	0x12011113
 228:	4006                	0x4006
 22a:	9618                	0x9618
 22c:	1942                	slli	s2,s2,0x30
 22e:	1301                	addi	t1,t1,-32
 230:	0000                	unimp
 232:	2e16                	fld	ft8,320(sp)
 234:	0301                	addi	t1,t1,0
 236:	3a0e                	fld	fs4,224(sp)
 238:	390b3b0b          	0x390b3b0b
 23c:	4919270b          	0x4919270b
 240:	12011113          	0x12011113
 244:	4006                	0x4006
 246:	9718                	0x9718
 248:	1942                	slli	s2,s2,0x30
 24a:	1301                	addi	t1,t1,-32
 24c:	0000                	unimp
 24e:	3f012e17          	auipc	t3,0x3f012
 252:	0319                	addi	t1,t1,6
 254:	3a0e                	fld	fs4,224(sp)
 256:	390b3b0b          	0x390b3b0b
 25a:	4919270b          	0x4919270b
 25e:	12011113          	0x12011113
 262:	4006                	0x4006
 264:	9618                	0x9618
 266:	1942                	slli	s2,s2,0x30
 268:	1301                	addi	t1,t1,-32
 26a:	0000                	unimp
 26c:	2e18                	fld	fa4,24(a2)
 26e:	0301                	addi	t1,t1,0
 270:	3a0e                	fld	fs4,224(sp)
 272:	390b3b0b          	0x390b3b0b
 276:	4919270b          	0x4919270b
 27a:	12011113          	0x12011113
 27e:	4006                	0x4006
 280:	9718                	0x9718
 282:	1942                	slli	s2,s2,0x30
 284:	0000                	unimp
 286:	0100                	addi	s0,sp,128
 288:	0111                	addi	sp,sp,4
 28a:	0e25                	addi	t3,t3,9
 28c:	0e030b13          	addi	s6,t1,224
 290:	01110e1b          	0x1110e1b
 294:	0612                	slli	a2,a2,0x4
 296:	1710                	addi	a2,sp,928
 298:	0000                	unimp
 29a:	2402                	fld	fs0,0(sp)
 29c:	0b00                	addi	s0,sp,400
 29e:	030b3e0b          	0x30b3e0b
 2a2:	000e                	c.slli	zero,0x3
 2a4:	0300                	addi	s0,sp,384
 2a6:	0024                	addi	s1,sp,8
 2a8:	0b3e0b0b          	0xb3e0b0b
 2ac:	00000803          	lb	a6,0(zero) # 0 <isr_table-0x10000000>
 2b0:	1604                	addi	s1,sp,800
 2b2:	0300                	addi	s0,sp,384
 2b4:	3a0e                	fld	fs4,224(sp)
 2b6:	390b3b0b          	0x390b3b0b
 2ba:	0013490b          	0x13490b
 2be:	0500                	addi	s0,sp,640
 2c0:	0b0b000f          	0xb0b000f
 2c4:	1349                	addi	t1,t1,-14
 2c6:	0000                	unimp
 2c8:	1506                	slli	a0,a0,0x21
 2ca:	2701                	jal	9ca <isr_table-0xffff636>
 2cc:	0119                	addi	sp,sp,6
 2ce:	07000013          	li	zero,112
 2d2:	0005                	c.nop	1
 2d4:	1349                	addi	t1,t1,-14
 2d6:	0000                	unimp
 2d8:	0108                	addi	a0,sp,128
 2da:	4901                	li	s2,0
 2dc:	00130113          	addi	sp,t1,1
 2e0:	0900                	addi	s0,sp,144
 2e2:	0021                	c.nop	8
 2e4:	1349                	addi	t1,t1,-14
 2e6:	00000b2f          	0xb2f
 2ea:	340a                	fld	fs0,160(sp)
 2ec:	0300                	addi	s0,sp,384
 2ee:	3a0e                	fld	fs4,224(sp)
 2f0:	390b3b0b          	0x390b3b0b
 2f4:	3f13490b          	0x3f13490b
 2f8:	3c19                	jal	fffffd0e <_etext+0xdffff24a>
 2fa:	0019                	c.nop	6
 2fc:	0b00                	addi	s0,sp,400
 2fe:	012e                	slli	sp,sp,0xb
 300:	0e03193f 0b3b0b3a 	0xb3b0b3a0e03193f
 308:	0b39                	addi	s6,s6,14
 30a:	0111                	addi	sp,sp,4
 30c:	0612                	slli	a2,a2,0x4
 30e:	1840                	addi	s0,sp,52
 310:	4296                	lw	t0,68(sp)
 312:	0119                	addi	sp,sp,6
 314:	0c000013          	li	zero,192
 318:	012e                	slli	sp,sp,0xb
 31a:	0e03193f 0b3b0b3a 	0xb3b0b3a0e03193f
 322:	0b39                	addi	s6,s6,14
 324:	1349                	addi	t1,t1,-14
 326:	193c                	addi	a5,sp,184
 328:	0000                	unimp
 32a:	180d                	addi	a6,a6,-29
 32c:	0000                	unimp
 32e:	0e00                	addi	s0,sp,784
 330:	002e                	c.slli	zero,0xb
 332:	0b3a0e03          	lb	t3,179(s4)
 336:	0b390b3b          	0xb390b3b
 33a:	0111                	addi	sp,sp,4
 33c:	0612                	slli	a2,a2,0x4
 33e:	1840                	addi	s0,sp,52
 340:	00194297          	auipc	t0,0x194
 344:	0000                	unimp
 346:	1101                	addi	sp,sp,-32
 348:	2501                	jal	948 <isr_table-0xffff6b8>
 34a:	130e                	slli	t1,t1,0x23
 34c:	1b0e030b          	0x1b0e030b
 350:	110e                	slli	sp,sp,0x23
 352:	1201                	addi	tp,tp,-32
 354:	1006                	c.slli	zero,0x21
 356:	02000017          	auipc	zero,0x2000
 35a:	0024                	addi	s1,sp,8
 35c:	0b3e0b0b          	0xb3e0b0b
 360:	00000e03          	lb	t3,0(zero) # 0 <isr_table-0x10000000>
 364:	03001603          	lh	a2,48(zero) # 30 <isr_table-0xfffffd0>
 368:	3a0e                	fld	fs4,224(sp)
 36a:	390b3b0b          	0x390b3b0b
 36e:	0013490b          	0x13490b
 372:	0400                	addi	s0,sp,512
 374:	0024                	addi	s1,sp,8
 376:	0b3e0b0b          	0xb3e0b0b
 37a:	00000803          	lb	a6,0(zero) # 0 <isr_table-0x10000000>
 37e:	0f05                	addi	t5,t5,1
 380:	0b00                	addi	s0,sp,400
 382:	0013490b          	0x13490b
 386:	0600                	addi	s0,sp,768
 388:	0115                	addi	sp,sp,5
 38a:	13011927          	0x13011927
 38e:	0000                	unimp
 390:	49000507          	0x49000507
 394:	08000013          	li	zero,128
 398:	0101                	addi	sp,sp,0
 39a:	1349                	addi	t1,t1,-14
 39c:	1301                	addi	t1,t1,-32
 39e:	0000                	unimp
 3a0:	2109                	jal	7a2 <isr_table-0xffff85e>
 3a2:	4900                	lw	s0,16(a0)
 3a4:	000b2f13          	slti	t5,s6,0
 3a8:	0a00                	addi	s0,sp,272
 3aa:	0034                	addi	a3,sp,8
 3ac:	0b3a0e03          	lb	t3,179(s4)
 3b0:	0b390b3b          	0xb390b3b
 3b4:	1349                	addi	t1,t1,-14
 3b6:	193c193f 340b0000 	0x340b0000193c193f
 3be:	4700                	lw	s0,8(a4)
 3c0:	3b0b3a13          	sltiu	s4,s6,944
 3c4:	020b390b          	0x20b390b
 3c8:	0018                	0x18
 3ca:	0c00                	addi	s0,sp,528
 3cc:	012e                	slli	sp,sp,0xb
 3ce:	0e03193f 0b3b0b3a 	0xb3b0b3a0e03193f
 3d6:	0b39                	addi	s6,s6,14
 3d8:	13491927          	0x13491927
 3dc:	0111                	addi	sp,sp,4
 3de:	0612                	slli	a2,a2,0x4
 3e0:	1840                	addi	s0,sp,52
 3e2:	4296                	lw	t0,68(sp)
 3e4:	0119                	addi	sp,sp,6
 3e6:	0d000013          	li	zero,208
 3ea:	0005                	c.nop	1
 3ec:	0b3a0e03          	lb	t3,179(s4)
 3f0:	0b390b3b          	0xb390b3b
 3f4:	1349                	addi	t1,t1,-14
 3f6:	1802                	slli	a6,a6,0x20
 3f8:	0000                	unimp
 3fa:	050e                	slli	a0,a0,0x3
 3fc:	0300                	addi	s0,sp,384
 3fe:	3a08                	fld	fa0,48(a2)
 400:	390b3b0b          	0x390b3b0b
 404:	0213490b          	0x213490b
 408:	0018                	0x18
 40a:	0f00                	addi	s0,sp,912
 40c:	0034                	addi	a3,sp,8
 40e:	0b3a0e03          	lb	t3,179(s4)
 412:	0b390b3b          	0xb390b3b
 416:	1349                	addi	t1,t1,-14
 418:	1802                	slli	a6,a6,0x20
 41a:	0000                	unimp
 41c:	2e10                	fld	fa2,24(a2)
 41e:	3f01                	jal	32e <isr_table-0xffffcd2>
 420:	0319                	addi	t1,t1,6
 422:	3a0e                	fld	fs4,224(sp)
 424:	390b3b0b          	0x390b3b0b
 428:	3c13490b          	0x3c13490b
 42c:	0019                	c.nop	6
 42e:	1100                	addi	s0,sp,160
 430:	0018                	0x18
 432:	0000                	unimp
 434:	2e12                	fld	ft8,256(sp)
 436:	3f01                	jal	346 <isr_table-0xffffcba>
 438:	0319                	addi	t1,t1,6
 43a:	3a0e                	fld	fs4,224(sp)
 43c:	390b3b0b          	0x390b3b0b
 440:	1119270b          	0x1119270b
 444:	1201                	addi	tp,tp,-32
 446:	4006                	0x4006
 448:	9718                	0x9718
 44a:	1942                	slli	s2,s2,0x30
 44c:	1301                	addi	t1,t1,-32
 44e:	0000                	unimp
 450:	3f012e13          	slti	t3,sp,1008
 454:	0319                	addi	t1,t1,6
 456:	3a0e                	fld	fs4,224(sp)
 458:	390b3b0b          	0x390b3b0b
 45c:	4919270b          	0x4919270b
 460:	12011113          	0x12011113
 464:	4006                	0x4006
 466:	9718                	0x9718
 468:	1942                	slli	s2,s2,0x30
 46a:	0000                	unimp
 46c:	0100                	addi	s0,sp,128
 46e:	0111                	addi	sp,sp,4
 470:	0e25                	addi	t3,t3,9
 472:	0e030b13          	addi	s6,t1,224
 476:	01110e1b          	0x1110e1b
 47a:	0612                	slli	a2,a2,0x4
 47c:	1710                	addi	a2,sp,928
 47e:	0000                	unimp
 480:	2402                	fld	fs0,0(sp)
 482:	0b00                	addi	s0,sp,400
 484:	030b3e0b          	0x30b3e0b
 488:	000e                	c.slli	zero,0x3
 48a:	0300                	addi	s0,sp,384
 48c:	0016                	c.slli	zero,0x5
 48e:	0b3a0e03          	lb	t3,179(s4)
 492:	0b390b3b          	0xb390b3b
 496:	1349                	addi	t1,t1,-14
 498:	0000                	unimp
 49a:	2404                	fld	fs1,8(s0)
 49c:	0b00                	addi	s0,sp,400
 49e:	030b3e0b          	0x30b3e0b
 4a2:	0008                	0x8
 4a4:	0500                	addi	s0,sp,640
 4a6:	0b0b000f          	0xb0b000f
 4aa:	1349                	addi	t1,t1,-14
 4ac:	0000                	unimp
 4ae:	1506                	slli	a0,a0,0x21
 4b0:	2701                	jal	bb0 <isr_table-0xffff450>
 4b2:	0119                	addi	sp,sp,6
 4b4:	07000013          	li	zero,112
 4b8:	0005                	c.nop	1
 4ba:	1349                	addi	t1,t1,-14
 4bc:	0000                	unimp
 4be:	0108                	addi	a0,sp,128
 4c0:	4901                	li	s2,0
 4c2:	00130113          	addi	sp,t1,1
 4c6:	0900                	addi	s0,sp,144
 4c8:	0021                	c.nop	8
 4ca:	1349                	addi	t1,t1,-14
 4cc:	00000b2f          	0xb2f
 4d0:	340a                	fld	fs0,160(sp)
 4d2:	0300                	addi	s0,sp,384
 4d4:	3a0e                	fld	fs4,224(sp)
 4d6:	390b3b0b          	0x390b3b0b
 4da:	3f13490b          	0x3f13490b
 4de:	3c19                	jal	fffffef4 <_etext+0xdffff430>
 4e0:	0019                	c.nop	6
 4e2:	0b00                	addi	s0,sp,400
 4e4:	012e                	slli	sp,sp,0xb
 4e6:	0e03193f 0b3b0b3a 	0xb3b0b3a0e03193f
 4ee:	0b39                	addi	s6,s6,14
 4f0:	13491927          	0x13491927
 4f4:	0111                	addi	sp,sp,4
 4f6:	0612                	slli	a2,a2,0x4
 4f8:	1840                	addi	s0,sp,52
 4fa:	4296                	lw	t0,68(sp)
 4fc:	0119                	addi	sp,sp,6
 4fe:	0c000013          	li	zero,192
 502:	0034                	addi	a3,sp,8
 504:	0b3a0e03          	lb	t3,179(s4)
 508:	0b390b3b          	0xb390b3b
 50c:	1349                	addi	t1,t1,-14
 50e:	0000                	unimp
 510:	340d                	jal	ffffff32 <_etext+0xdffff46e>
 512:	0300                	addi	s0,sp,384
 514:	3a08                	fld	fa0,48(a2)
 516:	390b3b0b          	0x390b3b0b
 51a:	0013490b          	0x13490b
 51e:	0e00                	addi	s0,sp,784
 520:	012e                	slli	sp,sp,0xb
 522:	0e03193f 0b3b0b3a 	0xb3b0b3a0e03193f
 52a:	0b39                	addi	s6,s6,14
 52c:	01111927          	0x1111927
 530:	0612                	slli	a2,a2,0x4
 532:	1840                	addi	s0,sp,52
 534:	4296                	lw	t0,68(sp)
 536:	0019                	c.nop	6
 538:	0f00                	addi	s0,sp,912
 53a:	0005                	c.nop	1
 53c:	0b3a0803          	lb	a6,179(s4)
 540:	0b390b3b          	0xb390b3b
 544:	1349                	addi	t1,t1,-14
 546:	1802                	slli	a6,a6,0x20
 548:	0000                	unimp
 54a:	00              	Address 0x000000000000054a is out of bounds.


Disassembly of section .debug_aranges:

00000000 <.debug_aranges>:
   0:	001c                	0x1c
   2:	0000                	unimp
   4:	0002                	c.slli64	zero
   6:	0000                	unimp
   8:	0000                	unimp
   a:	0004                	0x4
   c:	0000                	unimp
   e:	0000                	unimp
  10:	0144                	addi	s1,sp,132
  12:	2000                	fld	fs0,0(s0)
  14:	02b4                	addi	a3,sp,328
  16:	0000                	unimp
  18:	0000                	unimp
  1a:	0000                	unimp
  1c:	0000                	unimp
  1e:	0000                	unimp
  20:	001c                	0x1c
  22:	0000                	unimp
  24:	0002                	c.slli64	zero
  26:	00000283          	lb	t0,0(zero) # 0 <isr_table-0x10000000>
  2a:	0004                	0x4
  2c:	0000                	unimp
  2e:	0000                	unimp
  30:	03f8                	addi	a4,sp,460
  32:	2000                	fld	fs0,0(s0)
  34:	04fc                	addi	a5,sp,588
  36:	0000                	unimp
  38:	0000                	unimp
  3a:	0000                	unimp
  3c:	0000                	unimp
  3e:	0000                	unimp
  40:	001c                	0x1c
  42:	0000                	unimp
  44:	0002                	c.slli64	zero
  46:	07b4                	addi	a3,sp,968
  48:	0000                	unimp
  4a:	0004                	0x4
  4c:	0000                	unimp
  4e:	0000                	unimp
  50:	08f4                	addi	a3,sp,92
  52:	2000                	fld	fs0,0(s0)
  54:	0068                	addi	a0,sp,12
  56:	0000                	unimp
  58:	0000                	unimp
  5a:	0000                	unimp
  5c:	0000                	unimp
  5e:	0000                	unimp
  60:	001c                	0x1c
  62:	0000                	unimp
  64:	0002                	c.slli64	zero
  66:	08c0                	addi	s0,sp,84
  68:	0000                	unimp
  6a:	0004                	0x4
  6c:	0000                	unimp
  6e:	0000                	unimp
  70:	095c                	addi	a5,sp,148
  72:	2000                	fld	fs0,0(s0)
  74:	009c                	addi	a5,sp,64
  76:	0000                	unimp
  78:	0000                	unimp
  7a:	0000                	unimp
  7c:	0000                	unimp
  7e:	0000                	unimp
  80:	001c                	0x1c
  82:	0000                	unimp
  84:	0002                	c.slli64	zero
  86:	0a91                	addi	s5,s5,4
  88:	0000                	unimp
  8a:	0004                	0x4
  8c:	0000                	unimp
  8e:	0000                	unimp
  90:	09f8                	addi	a4,sp,220
  92:	2000                	fld	fs0,0(s0)
  94:	00cc                	addi	a1,sp,68
  96:	0000                	unimp
  98:	0000                	unimp
  9a:	0000                	unimp
  9c:	0000                	unimp
  9e:	0000                	unimp

Disassembly of section .debug_line:

00000000 <.debug_line>:
   0:	01fd                	addi	gp,gp,31
   2:	0000                	unimp
   4:	00ad0003          	lb	zero,10(s10)
   8:	0000                	unimp
   a:	0101                	addi	sp,sp,0
   c:	000d0efb          	0xd0efb
  10:	0101                	addi	sp,sp,0
  12:	0101                	addi	sp,sp,0
  14:	0000                	unimp
  16:	0100                	addi	s0,sp,128
  18:	0000                	unimp
  1a:	6201                	0x6201
  1c:	642f7073          	csrci	0x642,30
  20:	6972                	flw	fs2,28(sp)
  22:	6576                	flw	fa0,92(sp)
  24:	7372                	flw	ft6,60(sp)
  26:	6970672f          	0x6970672f
  2a:	6f2f006f          	j	f071c <isr_table-0xff0f8e4>
  2e:	7470                	flw	fa2,108(s0)
  30:	7369722f          	0x7369722f
  34:	32337663          	bgeu	t1,gp,360 <isr_table-0xffffca0>
  38:	7369722f          	0x7369722f
  3c:	32337663          	bgeu	t1,gp,368 <isr_table-0xffffc98>
  40:	752d                	lui	a0,0xfffeb
  42:	6b6e                	flw	fs6,216(sp)
  44:	6f6e                	flw	ft10,216(sp)
  46:	652d6e77          	0x652d6e77
  4a:	666c                	flw	fa1,76(a2)
  4c:	636e692f          	0x636e692f
  50:	756c                	flw	fa1,108(a0)
  52:	6564                	flw	fs1,76(a0)
  54:	63616d2f          	0x63616d2f
  58:	6968                	flw	fa0,84(a0)
  5a:	656e                	flw	fa0,216(sp)
  5c:	2f00                	fld	fs0,24(a4)
  5e:	2f74706f          	j	47b54 <isr_table-0xffb84ac>
  62:	6972                	flw	fs2,28(sp)
  64:	33766373          	csrrsi	t1,mhpmevent23,12
  68:	2f32                	fld	ft10,264(sp)
  6a:	6972                	flw	fs2,28(sp)
  6c:	33766373          	csrrsi	t1,mhpmevent23,12
  70:	2d32                	fld	fs10,264(sp)
  72:	6e75                	lui	t3,0x1d
  74:	776f6e6b          	0x776f6e6b
  78:	2d6e                	fld	fs10,216(sp)
  7a:	6c65                	lui	s8,0x19
  7c:	2f66                	fld	ft10,88(sp)
  7e:	6e69                	lui	t3,0x1a
  80:	64756c63          	bltu	a0,t2,6d8 <isr_table-0xffff928>
  84:	2f65                	jal	83c <isr_table-0xffff7c4>
  86:	00737973          	csrrci	s2,0x7,6
  8a:	6700                	flw	fs0,8(a4)
  8c:	6970                	flw	fa2,84(a0)
  8e:	00632e6f          	jal	t3,32094 <isr_table-0xffcdf6c>
  92:	0001                	nop
  94:	5f00                	lw	s0,56(a4)
  96:	6564                	flw	fs1,76(a0)
  98:	6166                	flw	ft2,88(sp)
  9a:	6c75                	lui	s8,0x1d
  9c:	5f74                	lw	a3,124(a4)
  9e:	7974                	flw	fa3,116(a0)
  a0:	6570                	flw	fa2,76(a0)
  a2:	00682e73          	csrrs	t3,0x6,a6
  a6:	0002                	c.slli64	zero
  a8:	5f00                	lw	s0,56(a4)
  aa:	69647473          	csrrci	s0,0x696,8
  ae:	746e                	flw	fs0,248(sp)
  b0:	682e                	flw	fa6,200(sp)
  b2:	0300                	addi	s0,sp,384
  b4:	0000                	unimp
  b6:	0500                	addi	s0,sp,640
  b8:	0205002f          	0x205002f
  bc:	0144                	addi	s1,sp,132
  be:	2000                	fld	fs0,0(s0)
  c0:	0516                	slli	a0,a0,0x5
  c2:	0900033b          	0x900033b
  c6:	0010                	0x10
  c8:	0501                	addi	a0,a0,0
  ca:	0345                	addi	t1,t1,17
  cc:	0900                	addi	s0,sp,144
  ce:	000c                	0xc
  d0:	0501                	addi	a0,a0,0
  d2:	0331                	addi	t1,t1,12
  d4:	00100903          	lb	s2,1(zero) # 1 <isr_table-0xfffffff>
  d8:	0501                	addi	a0,a0,0
  da:	031e                	slli	t1,t1,0x7
  dc:	0901                	addi	s2,s2,0
  de:	0018                	0x18
  e0:	0501                	addi	a0,a0,0
  e2:	033a                	slli	t1,t1,0xe
  e4:	0900                	addi	s0,sp,144
  e6:	0014                	0x14
  e8:	0501                	addi	a0,a0,0
  ea:	0301                	addi	t1,t1,0
  ec:	0901                	addi	s2,s2,0
  ee:	0008                	0x8
  f0:	0501                	addi	a0,a0,0
  f2:	09030347          	fmsub.s	ft6,ft6,fa6,ft1,rne
  f6:	0010                	0x10
  f8:	0501                	addi	a0,a0,0
  fa:	0319                	addi	t1,t1,6
  fc:	0901                	addi	s2,s2,0
  fe:	0020                	addi	s0,sp,8
 100:	0501                	addi	a0,a0,0
 102:	09020303          	lb	t1,144(tp) # ffffa090 <_etext+0xdfff95cc>
 106:	0014                	0x14
 108:	0001                	nop
 10a:	0402                	c.slli64	s0
 10c:	0601                	addi	a2,a2,0
 10e:	08090003          	lb	zero,128(s2) # 3080 <isr_table-0xfffcf80>
 112:	0100                	addi	s0,sp,128
 114:	0200                	addi	s0,sp,256
 116:	0204                	addi	s1,sp,256
 118:	08090003          	lb	zero,128(s2)
 11c:	0100                	addi	s0,sp,128
 11e:	0200                	addi	s0,sp,256
 120:	0404                	addi	s1,sp,512
 122:	04090003          	lb	zero,64(s2)
 126:	0100                	addi	s0,sp,128
 128:	0105                	addi	sp,sp,1
 12a:	0200                	addi	s0,sp,256
 12c:	0404                	addi	s1,sp,512
 12e:	0306                	slli	t1,t1,0x1
 130:	0902                	c.slli64	s2
 132:	0010                	0x10
 134:	0501                	addi	a0,a0,0
 136:	0326                	slli	t1,t1,0x9
 138:	090d                	addi	s2,s2,3
 13a:	0014                	0x14
 13c:	0501                	addi	a0,a0,0
 13e:	09010303          	lb	t1,144(sp)
 142:	0014                	0x14
 144:	0501                	addi	a0,a0,0
 146:	0301                	addi	t1,t1,0
 148:	0901                	addi	s2,s2,0
 14a:	0010                	0x10
 14c:	0501                	addi	a0,a0,0
 14e:	0324                	addi	s1,sp,392
 150:	0902                	c.slli64	s2
 152:	0014                	0x14
 154:	0501                	addi	a0,a0,0
 156:	09010303          	lb	t1,144(sp)
 15a:	0014                	0x14
 15c:	0501                	addi	a0,a0,0
 15e:	0301                	addi	t1,t1,0
 160:	0901                	addi	s2,s2,0
 162:	0010                	0x10
 164:	0501                	addi	a0,a0,0
 166:	0349                	addi	t1,t1,18
 168:	0904                	addi	s1,sp,144
 16a:	0014                	0x14
 16c:	0501                	addi	a0,a0,0
 16e:	0312                	slli	t1,t1,0x4
 170:	00200903          	lb	s2,2(zero) # 2 <isr_table-0xffffffe>
 174:	0301                	addi	t1,t1,0
 176:	0901                	addi	s2,s2,0
 178:	0014                	0x14
 17a:	0501                	addi	a0,a0,0
 17c:	0306                	slli	t1,t1,0x1
 17e:	0901                	addi	s2,s2,0
 180:	0010                	0x10
 182:	0501                	addi	a0,a0,0
 184:	032a                	slli	t1,t1,0xa
 186:	0902                	c.slli64	s2
 188:	0008                	0x8
 18a:	0501                	addi	a0,a0,0
 18c:	0338                	addi	a4,sp,392
 18e:	0900                	addi	s0,sp,144
 190:	0008                	0x8
 192:	0501                	addi	a0,a0,0
 194:	0305                	addi	t1,t1,1
 196:	097f                	0x97f
 198:	0010                	0x10
 19a:	0501                	addi	a0,a0,0
 19c:	0306                	slli	t1,t1,0x1
 19e:	00140903          	lb	s2,1(s0) # a71001 <isr_table-0xf58efff>
 1a2:	0501                	addi	a0,a0,0
 1a4:	0340                	addi	s0,sp,388
 1a6:	0902                	c.slli64	s2
 1a8:	0008                	0x8
 1aa:	0501                	addi	a0,a0,0
 1ac:	0305                	addi	t1,t1,1
 1ae:	097f                	0x97f
 1b0:	0008                	0x8
 1b2:	0501                	addi	a0,a0,0
 1b4:	0301                	addi	t1,t1,0
 1b6:	00180903          	lb	s2,1(a6)
 1ba:	0501                	addi	a0,a0,0
 1bc:	0329                	addi	t1,t1,10
 1be:	0902                	c.slli64	s2
 1c0:	0014                	0x14
 1c2:	0501                	addi	a0,a0,0
 1c4:	032e                	slli	t1,t1,0xb
 1c6:	0901                	addi	s2,s2,0
 1c8:	0018                	0x18
 1ca:	0501                	addi	a0,a0,0
 1cc:	031c                	addi	a5,sp,384
 1ce:	0900                	addi	s0,sp,144
 1d0:	0018                	0x18
 1d2:	0501                	addi	a0,a0,0
 1d4:	09010303          	lb	t1,144(sp)
 1d8:	000c                	0xc
 1da:	0501                	addi	a0,a0,0
 1dc:	0301                	addi	t1,t1,0
 1de:	0902                	c.slli64	s2
 1e0:	0018                	0x18
 1e2:	0501                	addi	a0,a0,0
 1e4:	032a                	slli	t1,t1,0xa
 1e6:	0902                	c.slli64	s2
 1e8:	0014                	0x14
 1ea:	0501                	addi	a0,a0,0
 1ec:	0305                	addi	t1,t1,1
 1ee:	0901                	addi	s2,s2,0
 1f0:	0018                	0x18
 1f2:	0501                	addi	a0,a0,0
 1f4:	0301                	addi	t1,t1,0
 1f6:	0901                	addi	s2,s2,0
 1f8:	0020                	addi	s0,sp,8
 1fa:	0901                	addi	s2,s2,0
 1fc:	0014                	0x14
 1fe:	0100                	addi	s0,sp,128
 200:	b101                	j	fffffe00 <_etext+0xdffff33c>
 202:	03000003          	lb	zero,48(zero) # 30 <isr_table-0xfffffd0>
 206:	0700                	addi	s0,sp,896
 208:	0001                	nop
 20a:	0100                	addi	s0,sp,128
 20c:	fb01                	bnez	a4,11c <isr_table-0xffffee4>
 20e:	0d0e                	slli	s10,s10,0x3
 210:	0100                	addi	s0,sp,128
 212:	0101                	addi	sp,sp,0
 214:	0001                	nop
 216:	0000                	unimp
 218:	0001                	nop
 21a:	0100                	addi	s0,sp,128
 21c:	7362                	flw	ft6,56(sp)
 21e:	2f70                	fld	fa2,216(a4)
 220:	7264                	flw	fs1,100(a2)
 222:	7669                	lui	a2,0xffffa
 224:	7265                	lui	tp,0xffff9
 226:	6c702f73          	csrr	t5,0x6c7
 22a:	6369                	lui	t1,0x1a
 22c:	2f00                	fld	fs0,24(a4)
 22e:	2f74706f          	j	47d24 <isr_table-0xffb82dc>
 232:	6972                	flw	fs2,28(sp)
 234:	33766373          	csrrsi	t1,mhpmevent23,12
 238:	2f32                	fld	ft10,264(sp)
 23a:	6972                	flw	fs2,28(sp)
 23c:	33766373          	csrrsi	t1,mhpmevent23,12
 240:	2d32                	fld	fs10,264(sp)
 242:	6e75                	lui	t3,0x1d
 244:	776f6e6b          	0x776f6e6b
 248:	2d6e                	fld	fs10,216(sp)
 24a:	6c65                	lui	s8,0x19
 24c:	2f66                	fld	ft10,88(sp)
 24e:	6e69                	lui	t3,0x1a
 250:	64756c63          	bltu	a0,t2,8a8 <isr_table-0xffff758>
 254:	2f65                	jal	a0c <isr_table-0xffff5f4>
 256:	616d                	addi	sp,sp,240
 258:	6e696863          	bltu	s2,t1,948 <isr_table-0xffff6b8>
 25c:	0065                	c.nop	25
 25e:	74706f2f          	0x74706f2f
 262:	7369722f          	0x7369722f
 266:	32337663          	bgeu	t1,gp,592 <isr_table-0xffffa6e>
 26a:	7369722f          	0x7369722f
 26e:	32337663          	bgeu	t1,gp,59a <isr_table-0xffffa66>
 272:	752d                	lui	a0,0xfffeb
 274:	6b6e                	flw	fs6,216(sp)
 276:	6f6e                	flw	ft10,216(sp)
 278:	652d6e77          	0x652d6e77
 27c:	666c                	flw	fa1,76(a2)
 27e:	636e692f          	0x636e692f
 282:	756c                	flw	fa1,108(a0)
 284:	6564                	flw	fs1,76(a0)
 286:	7379732f          	0x7379732f
 28a:	2f00                	fld	fs0,24(a4)
 28c:	2f74706f          	j	47d82 <isr_table-0xffb827e>
 290:	6972                	flw	fs2,28(sp)
 292:	33766373          	csrrsi	t1,mhpmevent23,12
 296:	2f32                	fld	ft10,264(sp)
 298:	696c                	flw	fa1,84(a0)
 29a:	2f62                	fld	ft10,24(sp)
 29c:	2f636367          	0x2f636367
 2a0:	6972                	flw	fs2,28(sp)
 2a2:	33766373          	csrrsi	t1,mhpmevent23,12
 2a6:	2d32                	fld	fs10,264(sp)
 2a8:	6e75                	lui	t3,0x1d
 2aa:	776f6e6b          	0x776f6e6b
 2ae:	2d6e                	fld	fs10,216(sp)
 2b0:	6c65                	lui	s8,0x19
 2b2:	2f66                	fld	ft10,88(sp)
 2b4:	3031                	jal	fffffac0 <_etext+0xdfffeffc>
 2b6:	322e                	fld	ft4,232(sp)
 2b8:	302e                	fld	ft0,232(sp)
 2ba:	636e692f          	0x636e692f
 2be:	756c                	flw	fa1,108(a0)
 2c0:	6564                	flw	fs1,76(a0)
 2c2:	6200                	flw	fs0,0(a2)
 2c4:	692f7073          	csrci	0x692,30
 2c8:	636e                	flw	ft6,216(sp)
 2ca:	756c                	flw	fa1,108(a0)
 2cc:	6564                	flw	fs1,76(a0)
 2ce:	0000                	unimp
 2d0:	6c70                	flw	fa2,92(s0)
 2d2:	6369                	lui	t1,0x1a
 2d4:	632e                	flw	ft6,200(sp)
 2d6:	0100                	addi	s0,sp,128
 2d8:	0000                	unimp
 2da:	645f 6665 7561      	0x75616665645f
 2e0:	746c                	flw	fa1,108(s0)
 2e2:	745f 7079 7365      	0x73657079745f
 2e8:	682e                	flw	fa6,200(sp)
 2ea:	0200                	addi	s0,sp,256
 2ec:	0000                	unimp
 2ee:	735f 6474 6e69      	0x6e696474735f
 2f4:	2e74                	fld	fa3,216(a2)
 2f6:	0068                	addi	a0,sp,12
 2f8:	73000003          	lb	zero,1840(zero) # 730 <isr_table-0xffff8d0>
 2fc:	6474                	flw	fa3,76(s0)
 2fe:	6564                	flw	fs1,76(a0)
 300:	2e66                	fld	ft8,88(sp)
 302:	0068                	addi	a0,sp,12
 304:	0004                	0x4
 306:	7000                	flw	fs0,32(s0)
 308:	696c                	flw	fa1,84(a0)
 30a:	00682e63          	0x682e63
 30e:	0005                	c.nop	1
 310:	0000                	unimp
 312:	2f05                	jal	a42 <isr_table-0xffff5be>
 314:	0500                	addi	s0,sp,640
 316:	f802                	fsw	ft0,48(sp)
 318:	03200003          	lb	zero,50(zero) # 32 <isr_table-0xfffffce>
 31c:	010c                	addi	a1,sp,128
 31e:	3b05                	jal	4e <isr_table-0xfffffb2>
 320:	10090003          	lb	zero,256(s2)
 324:	0100                	addi	s0,sp,128
 326:	4505                	li	a0,1
 328:	0c090003          	lb	zero,192(s2)
 32c:	0100                	addi	s0,sp,128
 32e:	3d05                	jal	15e <isr_table-0xffffea2>
 330:	10090703          	lb	a4,256(s2)
 334:	0100                	addi	s0,sp,128
 336:	2505                	jal	956 <isr_table-0xffff6aa>
 338:	14090103          	lb	sp,320(s2)
 33c:	0100                	addi	s0,sp,128
 33e:	0105                	addi	sp,sp,1
 340:	14090103          	lb	sp,320(s2)
 344:	0100                	addi	s0,sp,128
 346:	1905                	addi	s2,s2,-31
 348:	10090303          	lb	t1,256(s2)
 34c:	0100                	addi	s0,sp,128
 34e:	0a05                	addi	s4,s4,1
 350:	10090103          	lb	sp,256(s2)
 354:	0100                	addi	s0,sp,128
 356:	0105                	addi	sp,sp,1
 358:	28090303          	lb	t1,640(s2)
 35c:	0100                	addi	s0,sp,128
 35e:	3805                	jal	fffffb8e <_etext+0xdffff0ca>
 360:	14090403          	lb	s0,320(s2)
 364:	0100                	addi	s0,sp,128
 366:	1605                	addi	a2,a2,-31
 368:	1c090103          	lb	sp,448(s2)
 36c:	0100                	addi	s0,sp,128
 36e:	2405                	jal	58e <isr_table-0xffffa72>
 370:	04090003          	lb	zero,64(s2)
 374:	0100                	addi	s0,sp,128
 376:	1c05                	addi	s8,s8,-31
 378:	04090003          	lb	zero,64(s2)
 37c:	0100                	addi	s0,sp,128
 37e:	0f05                	addi	t5,t5,1
 380:	04090003          	lb	zero,64(s2)
 384:	0100                	addi	s0,sp,128
 386:	0c05                	addi	s8,s8,1
 388:	04090003          	lb	zero,64(s2)
 38c:	0100                	addi	s0,sp,128
 38e:	1d05                	addi	s10,s10,-31
 390:	0c090103          	lb	sp,192(s2)
 394:	0100                	addi	s0,sp,128
 396:	1605                	addi	a2,a2,-31
 398:	04090003          	lb	zero,64(s2)
 39c:	0100                	addi	s0,sp,128
 39e:	2c05                	jal	5ce <isr_table-0xffffa32>
 3a0:	08090003          	lb	zero,128(s2)
 3a4:	0100                	addi	s0,sp,128
 3a6:	2405                	jal	5c6 <isr_table-0xffffa3a>
 3a8:	04090003          	lb	zero,64(s2)
 3ac:	0100                	addi	s0,sp,128
 3ae:	0c05                	addi	s8,s8,1
 3b0:	04090003          	lb	zero,64(s2)
 3b4:	0100                	addi	s0,sp,128
 3b6:	0a05                	addi	s4,s4,1
 3b8:	0c090103          	lb	sp,192(s2)
 3bc:	0100                	addi	s0,sp,128
 3be:	0105                	addi	sp,sp,1
 3c0:	04090103          	lb	sp,64(s2)
 3c4:	0100                	addi	s0,sp,128
 3c6:	3205                	jal	fffffce6 <_etext+0xdffff222>
 3c8:	10090403          	lb	s0,256(s2)
 3cc:	0100                	addi	s0,sp,128
 3ce:	0a05                	addi	s4,s4,1
 3d0:	20090103          	lb	sp,512(s2)
 3d4:	0100                	addi	s0,sp,128
 3d6:	0200                	addi	s0,sp,256
 3d8:	0104                	addi	s1,sp,128
 3da:	0306                	slli	t1,t1,0x1
 3dc:	0900                	addi	s0,sp,144
 3de:	0020                	addi	s0,sp,8
 3e0:	0001                	nop
 3e2:	0402                	c.slli64	s0
 3e4:	0302                	c.slli64	t1
 3e6:	0900                	addi	s0,sp,144
 3e8:	0008                	0x8
 3ea:	0001                	nop
 3ec:	0402                	c.slli64	s0
 3ee:	0304                	addi	s1,sp,384
 3f0:	0900                	addi	s0,sp,144
 3f2:	0004                	0x4
 3f4:	0501                	addi	a0,a0,0
 3f6:	0001                	nop
 3f8:	0402                	c.slli64	s0
 3fa:	0604                	addi	s1,sp,768
 3fc:	18090203          	lb	tp,384(s2)
 400:	0100                	addi	s0,sp,128
 402:	3905                	jal	32 <isr_table-0xfffffce>
 404:	14090303          	lb	t1,320(s2)
 408:	0100                	addi	s0,sp,128
 40a:	1a05                	addi	s4,s4,-31
 40c:	10090103          	lb	sp,256(s2)
 410:	0100                	addi	s0,sp,128
 412:	0d05                	addi	s10,s10,1
 414:	08090003          	lb	zero,128(s2)
 418:	0100                	addi	s0,sp,128
 41a:	2305                	jal	93a <isr_table-0xffff6c6>
 41c:	04090103          	lb	sp,64(s2)
 420:	0100                	addi	s0,sp,128
 422:	0105                	addi	sp,sp,1
 424:	08090103          	lb	sp,128(s2)
 428:	0100                	addi	s0,sp,128
 42a:	3605                	jal	ffffff4a <_etext+0xdffff486>
 42c:	10090703          	lb	a4,256(s2)
 430:	0100                	addi	s0,sp,128
 432:	2005                	jal	452 <isr_table-0xffffbae>
 434:	10090103          	lb	sp,256(s2)
 438:	0100                	addi	s0,sp,128
 43a:	0b05                	addi	s6,s6,1
 43c:	08090003          	lb	zero,128(s2)
 440:	0100                	addi	s0,sp,128
 442:	1905                	addi	s2,s2,-31
 444:	04090103          	lb	sp,64(s2)
 448:	0100                	addi	s0,sp,128
 44a:	0105                	addi	sp,sp,1
 44c:	08090103          	lb	sp,128(s2)
 450:	0100                	addi	s0,sp,128
 452:	3105                	jal	72 <isr_table-0xfffff8e>
 454:	10090203          	lb	tp,256(s2)
 458:	0100                	addi	s0,sp,128
 45a:	0e05                	addi	t3,t3,1
 45c:	10090103          	lb	sp,256(s2)
 460:	0100                	addi	s0,sp,128
 462:	0105                	addi	sp,sp,1
 464:	10090103          	lb	sp,256(s2)
 468:	0100                	addi	s0,sp,128
 46a:	3f05                	jal	39a <isr_table-0xffffc66>
 46c:	10090203          	lb	tp,256(s2)
 470:	0100                	addi	s0,sp,128
 472:	1605                	addi	a2,a2,-31
 474:	20090103          	lb	sp,512(s2)
 478:	0100                	addi	s0,sp,128
 47a:	2805                	jal	4aa <isr_table-0xffffb56>
 47c:	0c090203          	lb	tp,192(s2)
 480:	0100                	addi	s0,sp,128
 482:	1405                	addi	s0,s0,-31
 484:	08090103          	lb	sp,128(s2)
 488:	0100                	addi	s0,sp,128
 48a:	0a05                	addi	s4,s4,1
 48c:	0c097e03          	0xc097e03
 490:	0100                	addi	s0,sp,128
 492:	0105                	addi	sp,sp,1
 494:	20090403          	lb	s0,512(s2)
 498:	0100                	addi	s0,sp,128
 49a:	24090303          	lb	t1,576(s2)
 49e:	0100                	addi	s0,sp,128
 4a0:	0c05                	addi	s8,s8,1
 4a2:	0c090103          	lb	sp,192(s2)
 4a6:	0100                	addi	s0,sp,128
 4a8:	1a05                	addi	s4,s4,-31
 4aa:	04090203          	lb	tp,64(s2)
 4ae:	0100                	addi	s0,sp,128
 4b0:	0f05                	addi	t5,t5,1
 4b2:	0c090203          	lb	tp,192(s2)
 4b6:	0100                	addi	s0,sp,128
 4b8:	0905                	addi	s2,s2,1
 4ba:	0c090103          	lb	sp,192(s2)
 4be:	0100                	addi	s0,sp,128
 4c0:	0105                	addi	sp,sp,1
 4c2:	04090103          	lb	sp,64(s2)
 4c6:	0100                	addi	s0,sp,128
 4c8:	10090303          	lb	t1,256(s2)
 4cc:	0100                	addi	s0,sp,128
 4ce:	0205                	addi	tp,tp,1
 4d0:	18090303          	lb	t1,384(s2)
 4d4:	0100                	addi	s0,sp,128
 4d6:	0c05                	addi	s8,s8,1
 4d8:	08090203          	lb	tp,128(s2)
 4dc:	0100                	addi	s0,sp,128
 4de:	0b05                	addi	s6,s6,1
 4e0:	08090003          	lb	zero,128(s2)
 4e4:	0100                	addi	s0,sp,128
 4e6:	0205                	addi	tp,tp,1
 4e8:	10090003          	lb	zero,256(s2)
 4ec:	0100                	addi	s0,sp,128
 4ee:	10090203          	lb	tp,256(s2)
 4f2:	0100                	addi	s0,sp,128
 4f4:	0105                	addi	sp,sp,1
 4f6:	08090103          	lb	sp,128(s2)
 4fa:	0100                	addi	s0,sp,128
 4fc:	3405                	jal	ffffff1c <_etext+0xdffff458>
 4fe:	14090203          	lb	tp,320(s2)
 502:	0100                	addi	s0,sp,128
 504:	1605                	addi	a2,a2,-31
 506:	18090203          	lb	tp,384(s2)
 50a:	0100                	addi	s0,sp,128
 50c:	0305                	addi	t1,t1,1
 50e:	10090103          	lb	sp,256(s2)
 512:	0100                	addi	s0,sp,128
 514:	0105                	addi	sp,sp,1
 516:	14090103          	lb	sp,320(s2)
 51a:	0100                	addi	s0,sp,128
 51c:	2d05                	jal	b4c <isr_table-0xffff4b4>
 51e:	14090203          	lb	tp,320(s2)
 522:	0100                	addi	s0,sp,128
 524:	0305                	addi	t1,t1,1
 526:	14090103          	lb	sp,320(s2)
 52a:	0100                	addi	s0,sp,128
 52c:	0105                	addi	sp,sp,1
 52e:	10090203          	lb	tp,256(s2)
 532:	0100                	addi	s0,sp,128
 534:	2a05                	jal	664 <isr_table-0xffff99c>
 536:	14090203          	lb	tp,320(s2)
 53a:	0100                	addi	s0,sp,128
 53c:	1905                	addi	s2,s2,-31
 53e:	14090103          	lb	sp,320(s2)
 542:	0100                	addi	s0,sp,128
 544:	0305                	addi	t1,t1,1
 546:	14090103          	lb	sp,320(s2)
 54a:	0100                	addi	s0,sp,128
 54c:	0105                	addi	sp,sp,1
 54e:	10090203          	lb	tp,256(s2)
 552:	0100                	addi	s0,sp,128
 554:	2c05                	jal	784 <isr_table-0xffff87c>
 556:	14090203          	lb	tp,320(s2)
 55a:	0100                	addi	s0,sp,128
 55c:	0305                	addi	t1,t1,1
 55e:	14090103          	lb	sp,320(s2)
 562:	0100                	addi	s0,sp,128
 564:	0105                	addi	sp,sp,1
 566:	10090103          	lb	sp,256(s2)
 56a:	0100                	addi	s0,sp,128
 56c:	2b05                	jal	a9c <isr_table-0xffff564>
 56e:	14091003          	lh	zero,320(s2)
 572:	0100                	addi	s0,sp,128
 574:	1105                	addi	sp,sp,-31
 576:	14090203          	lb	tp,320(s2)
 57a:	0100                	addi	s0,sp,128
 57c:	0f05                	addi	t5,t5,1
 57e:	10090003          	lb	zero,256(s2)
 582:	0100                	addi	s0,sp,128
 584:	0105                	addi	sp,sp,1
 586:	08090203          	lb	tp,128(s2)
 58a:	0100                	addi	s0,sp,128
 58c:	3705                	jal	4ac <isr_table-0xffffb54>
 58e:	14090203          	lb	tp,320(s2)
 592:	0100                	addi	s0,sp,128
 594:	0305                	addi	t1,t1,1
 596:	14090403          	lb	s0,320(s2)
 59a:	0100                	addi	s0,sp,128
 59c:	0105                	addi	sp,sp,1
 59e:	18090303          	lb	t1,384(s2)
 5a2:	0100                	addi	s0,sp,128
 5a4:	14090403          	lb	s0,320(s2)
 5a8:	0100                	addi	s0,sp,128
 5aa:	10091203          	lh	tp,256(s2)
 5ae:	0100                	addi	s0,sp,128
 5b0:	1009                	c.nop	-30
 5b2:	0000                	unimp
 5b4:	0101                	addi	sp,sp,0
 5b6:	00000107          	0x107
 5ba:	00bb0003          	lb	zero,11(s6) # 100b <isr_table-0xfffeff5>
 5be:	0000                	unimp
 5c0:	0101                	addi	sp,sp,0
 5c2:	000d0efb          	0xd0efb
 5c6:	0101                	addi	sp,sp,0
 5c8:	0101                	addi	sp,sp,0
 5ca:	0000                	unimp
 5cc:	0100                	addi	s0,sp,128
 5ce:	0000                	unimp
 5d0:	6201                	0x6201
 5d2:	632f7073          	csrci	0x632,30
 5d6:	0065726f          	jal	tp,575dc <isr_table-0xffa8a24>
 5da:	74706f2f          	0x74706f2f
 5de:	7369722f          	0x7369722f
 5e2:	32337663          	bgeu	t1,gp,90e <isr_table-0xffff6f2>
 5e6:	7369722f          	0x7369722f
 5ea:	32337663          	bgeu	t1,gp,916 <isr_table-0xffff6ea>
 5ee:	752d                	lui	a0,0xfffeb
 5f0:	6b6e                	flw	fs6,216(sp)
 5f2:	6f6e                	flw	ft10,216(sp)
 5f4:	652d6e77          	0x652d6e77
 5f8:	666c                	flw	fa1,76(a2)
 5fa:	636e692f          	0x636e692f
 5fe:	756c                	flw	fa1,108(a0)
 600:	6564                	flw	fs1,76(a0)
 602:	63616d2f          	0x63616d2f
 606:	6968                	flw	fa0,84(a0)
 608:	656e                	flw	fa0,216(sp)
 60a:	2f00                	fld	fs0,24(a4)
 60c:	2f74706f          	j	48102 <isr_table-0xffb7efe>
 610:	6972                	flw	fs2,28(sp)
 612:	33766373          	csrrsi	t1,mhpmevent23,12
 616:	2f32                	fld	ft10,264(sp)
 618:	6972                	flw	fs2,28(sp)
 61a:	33766373          	csrrsi	t1,mhpmevent23,12
 61e:	2d32                	fld	fs10,264(sp)
 620:	6e75                	lui	t3,0x1d
 622:	776f6e6b          	0x776f6e6b
 626:	2d6e                	fld	fs10,216(sp)
 628:	6c65                	lui	s8,0x19
 62a:	2f66                	fld	ft10,88(sp)
 62c:	6e69                	lui	t3,0x1a
 62e:	64756c63          	bltu	a0,t2,c86 <isr_table-0xffff37a>
 632:	2f65                	jal	dea <isr_table-0xffff216>
 634:	00737973          	csrrci	s2,0x7,6
 638:	7362                	flw	ft6,56(sp)
 63a:	2f70                	fld	fa2,216(a4)
 63c:	6e69                	lui	t3,0x1a
 63e:	64756c63          	bltu	a0,t2,c96 <isr_table-0xffff36a>
 642:	0065                	c.nop	25
 644:	6900                	flw	fs0,16(a0)
 646:	696e                	flw	fs2,216(sp)
 648:	2e74                	fld	fa3,216(a2)
 64a:	00010063          	beqz	sp,64a <isr_table-0xffff9b6>
 64e:	5f00                	lw	s0,56(a4)
 650:	6564                	flw	fs1,76(a0)
 652:	6166                	flw	ft2,88(sp)
 654:	6c75                	lui	s8,0x1d
 656:	5f74                	lw	a3,124(a4)
 658:	7974                	flw	fa3,116(a0)
 65a:	6570                	flw	fa2,76(a0)
 65c:	00682e73          	csrrs	t3,0x6,a6
 660:	0002                	c.slli64	zero
 662:	5f00                	lw	s0,56(a4)
 664:	69647473          	csrrci	s0,0x696,8
 668:	746e                	flw	fs0,248(sp)
 66a:	682e                	flw	fa6,200(sp)
 66c:	0300                	addi	s0,sp,384
 66e:	0000                	unimp
 670:	7274                	flw	fa3,100(a2)
 672:	7061                	c.lui	zero,0xffff8
 674:	682e                	flw	fa6,200(sp)
 676:	0400                	addi	s0,sp,512
 678:	0000                	unimp
 67a:	0500                	addi	s0,sp,640
 67c:	0018                	0x18
 67e:	0205                	addi	tp,tp,1
 680:	08f4                	addi	a3,sp,92
 682:	2000                	fld	fs0,0(s0)
 684:	0516                	slli	a0,a0,0x5
 686:	0336                	slli	t1,t1,0xd
 688:	0901                	addi	s2,s2,0
 68a:	000c                	0xc
 68c:	0501                	addi	a0,a0,0
 68e:	09010337          	lui	t1,0x9010
 692:	0010                	0x10
 694:	0501                	addi	a0,a0,0
 696:	0301                	addi	t1,t1,0
 698:	0901                	addi	s2,s2,0
 69a:	0010                	0x10
 69c:	0501                	addi	a0,a0,0
 69e:	030e                	slli	t1,t1,0x3
 6a0:	0902                	c.slli64	s2
 6a2:	0010                	0x10
 6a4:	0501                	addi	a0,a0,0
 6a6:	0305                	addi	t1,t1,1
 6a8:	0901                	addi	s2,s2,0
 6aa:	0010                	0x10
 6ac:	0301                	addi	t1,t1,0
 6ae:	0901                	addi	s2,s2,0
 6b0:	0004                	0x4
 6b2:	0501                	addi	a0,a0,0
 6b4:	0301                	addi	t1,t1,0
 6b6:	0901                	addi	s2,s2,0
 6b8:	0004                	0x4
 6ba:	0901                	addi	s2,s2,0
 6bc:	0014                	0x14
 6be:	0100                	addi	s0,sp,128
 6c0:	3301                	jal	3c0 <isr_table-0xffffc40>
 6c2:	0001                	nop
 6c4:	0300                	addi	s0,sp,384
 6c6:	bb00                	fsd	fs0,48(a4)
 6c8:	0000                	unimp
 6ca:	0100                	addi	s0,sp,128
 6cc:	fb01                	bnez	a4,5dc <isr_table-0xffffa24>
 6ce:	0d0e                	slli	s10,s10,0x3
 6d0:	0100                	addi	s0,sp,128
 6d2:	0101                	addi	sp,sp,0
 6d4:	0001                	nop
 6d6:	0000                	unimp
 6d8:	0001                	nop
 6da:	0100                	addi	s0,sp,128
 6dc:	7362                	flw	ft6,56(sp)
 6de:	2f70                	fld	fa2,216(a4)
 6e0:	65726f63          	bltu	tp,s7,d3e <isr_table-0xffff2c2>
 6e4:	2f00                	fld	fs0,24(a4)
 6e6:	2f74706f          	j	481dc <isr_table-0xffb7e24>
 6ea:	6972                	flw	fs2,28(sp)
 6ec:	33766373          	csrrsi	t1,mhpmevent23,12
 6f0:	2f32                	fld	ft10,264(sp)
 6f2:	6972                	flw	fs2,28(sp)
 6f4:	33766373          	csrrsi	t1,mhpmevent23,12
 6f8:	2d32                	fld	fs10,264(sp)
 6fa:	6e75                	lui	t3,0x1d
 6fc:	776f6e6b          	0x776f6e6b
 700:	2d6e                	fld	fs10,216(sp)
 702:	6c65                	lui	s8,0x19
 704:	2f66                	fld	ft10,88(sp)
 706:	6e69                	lui	t3,0x1a
 708:	64756c63          	bltu	a0,t2,d60 <isr_table-0xffff2a0>
 70c:	2f65                	jal	ec4 <isr_table-0xffff13c>
 70e:	616d                	addi	sp,sp,240
 710:	6e696863          	bltu	s2,t1,e00 <isr_table-0xffff200>
 714:	0065                	c.nop	25
 716:	74706f2f          	0x74706f2f
 71a:	7369722f          	0x7369722f
 71e:	32337663          	bgeu	t1,gp,a4a <isr_table-0xffff5b6>
 722:	7369722f          	0x7369722f
 726:	32337663          	bgeu	t1,gp,a52 <isr_table-0xffff5ae>
 72a:	752d                	lui	a0,0xfffeb
 72c:	6b6e                	flw	fs6,216(sp)
 72e:	6f6e                	flw	ft10,216(sp)
 730:	652d6e77          	0x652d6e77
 734:	666c                	flw	fa1,76(a2)
 736:	636e692f          	0x636e692f
 73a:	756c                	flw	fa1,108(a0)
 73c:	6564                	flw	fs1,76(a0)
 73e:	7379732f          	0x7379732f
 742:	6200                	flw	fs0,0(a2)
 744:	692f7073          	csrci	0x692,30
 748:	636e                	flw	ft6,216(sp)
 74a:	756c                	flw	fa1,108(a0)
 74c:	6564                	flw	fs1,76(a0)
 74e:	0000                	unimp
 750:	7274                	flw	fa3,100(a2)
 752:	7061                	c.lui	zero,0xffff8
 754:	632e                	flw	ft6,200(sp)
 756:	0100                	addi	s0,sp,128
 758:	0000                	unimp
 75a:	645f 6665 7561      	0x75616665645f
 760:	746c                	flw	fa1,108(s0)
 762:	745f 7079 7365      	0x73657079745f
 768:	682e                	flw	fa6,200(sp)
 76a:	0200                	addi	s0,sp,256
 76c:	0000                	unimp
 76e:	735f 6474 6e69      	0x6e696474735f
 774:	2e74                	fld	fa3,216(a2)
 776:	0068                	addi	a0,sp,12
 778:	74000003          	lb	zero,1856(zero) # 740 <isr_table-0xffff8c0>
 77c:	6172                	flw	ft2,28(sp)
 77e:	2e70                	fld	fa2,216(a2)
 780:	0068                	addi	a0,sp,12
 782:	0004                	0x4
 784:	0000                	unimp
 786:	0105                	addi	sp,sp,1
 788:	0500                	addi	s0,sp,640
 78a:	5c02                	lw	s8,32(sp)
 78c:	0009                	c.nop	2
 78e:	1720                	addi	s0,sp,936
 790:	1105                	addi	sp,sp,-31
 792:	10090203          	lb	tp,256(s2)
 796:	0100                	addi	s0,sp,128
 798:	0905                	addi	s2,s2,1
 79a:	14090103          	lb	sp,320(s2)
 79e:	0100                	addi	s0,sp,128
 7a0:	0105                	addi	sp,sp,1
 7a2:	04090103          	lb	sp,64(s2)
 7a6:	0100                	addi	s0,sp,128
 7a8:	10090203          	lb	tp,256(s2)
 7ac:	0100                	addi	s0,sp,128
 7ae:	0705                	addi	a4,a4,1
 7b0:	0200                	addi	s0,sp,256
 7b2:	0104                	addi	s1,sp,128
 7b4:	14090103          	lb	sp,320(s2)
 7b8:	0100                	addi	s0,sp,128
 7ba:	0105                	addi	sp,sp,1
 7bc:	04090403          	lb	s0,64(s2)
 7c0:	0100                	addi	s0,sp,128
 7c2:	0f05                	addi	t5,t5,1
 7c4:	18090103          	lb	sp,384(s2)
 7c8:	0100                	addi	s0,sp,128
 7ca:	0b05                	addi	s6,s6,1
 7cc:	04090103          	lb	sp,64(s2)
 7d0:	0100                	addi	s0,sp,128
 7d2:	0f05                	addi	t5,t5,1
 7d4:	04090203          	lb	tp,64(s2)
 7d8:	0100                	addi	s0,sp,128
 7da:	0205                	addi	tp,tp,1
 7dc:	08090103          	lb	sp,128(s2)
 7e0:	0100                	addi	s0,sp,128
 7e2:	0805                	addi	a6,a6,1
 7e4:	0c090a03          	lb	s4,192(s2)
 7e8:	0100                	addi	s0,sp,128
 7ea:	0105                	addi	sp,sp,1
 7ec:	04090103          	lb	sp,64(s2)
 7f0:	0100                	addi	s0,sp,128
 7f2:	1409                	addi	s0,s0,-30
 7f4:	0000                	unimp
 7f6:	0101                	addi	sp,sp,0
 7f8:	0155                	addi	sp,sp,21
 7fa:	0000                	unimp
 7fc:	00cb0003          	lb	zero,12(s6)
 800:	0000                	unimp
 802:	0101                	addi	sp,sp,0
 804:	000d0efb          	0xd0efb
 808:	0101                	addi	sp,sp,0
 80a:	0101                	addi	sp,sp,0
 80c:	0000                	unimp
 80e:	0100                	addi	s0,sp,128
 810:	0000                	unimp
 812:	7301                	lui	t1,0xfffe0
 814:	7774666f          	jal	a2,4778a <isr_table-0xffb8876>
 818:	7261                	lui	tp,0xffff8
 81a:	7365                	lui	t1,0xffff9
 81c:	696c702f          	0x696c702f
 820:	65745f63          	bge	s0,s7,e7e <isr_table-0xffff182>
 824:	2f007473          	csrrci	s0,0x2f0,0
 828:	2f74706f          	j	4831e <isr_table-0xffb7ce2>
 82c:	6972                	flw	fs2,28(sp)
 82e:	33766373          	csrrsi	t1,mhpmevent23,12
 832:	2f32                	fld	ft10,264(sp)
 834:	6972                	flw	fs2,28(sp)
 836:	33766373          	csrrsi	t1,mhpmevent23,12
 83a:	2d32                	fld	fs10,264(sp)
 83c:	6e75                	lui	t3,0x1d
 83e:	776f6e6b          	0x776f6e6b
 842:	2d6e                	fld	fs10,216(sp)
 844:	6c65                	lui	s8,0x19
 846:	2f66                	fld	ft10,88(sp)
 848:	6e69                	lui	t3,0x1a
 84a:	64756c63          	bltu	a0,t2,ea2 <isr_table-0xffff15e>
 84e:	2f65                	jal	1006 <isr_table-0xfffeffa>
 850:	616d                	addi	sp,sp,240
 852:	6e696863          	bltu	s2,t1,f42 <isr_table-0xffff0be>
 856:	0065                	c.nop	25
 858:	74706f2f          	0x74706f2f
 85c:	7369722f          	0x7369722f
 860:	32337663          	bgeu	t1,gp,b8c <isr_table-0xffff474>
 864:	7369722f          	0x7369722f
 868:	32337663          	bgeu	t1,gp,b94 <isr_table-0xffff46c>
 86c:	752d                	lui	a0,0xfffeb
 86e:	6b6e                	flw	fs6,216(sp)
 870:	6f6e                	flw	ft10,216(sp)
 872:	652d6e77          	0x652d6e77
 876:	666c                	flw	fa1,76(a2)
 878:	636e692f          	0x636e692f
 87c:	756c                	flw	fa1,108(a0)
 87e:	6564                	flw	fs1,76(a0)
 880:	7379732f          	0x7379732f
 884:	6200                	flw	fs0,0(a2)
 886:	692f7073          	csrci	0x692,30
 88a:	636e                	flw	ft6,216(sp)
 88c:	756c                	flw	fa1,108(a0)
 88e:	6564                	flw	fs1,76(a0)
 890:	0000                	unimp
 892:	6c70                	flw	fa2,92(s0)
 894:	6369                	lui	t1,0x1a
 896:	745f 7365 2e74      	0x2e747365745f
 89c:	00010063          	beqz	sp,89c <isr_table-0xffff764>
 8a0:	5f00                	lw	s0,56(a4)
 8a2:	6564                	flw	fs1,76(a0)
 8a4:	6166                	flw	ft2,88(sp)
 8a6:	6c75                	lui	s8,0x1d
 8a8:	5f74                	lw	a3,124(a4)
 8aa:	7974                	flw	fa3,116(a0)
 8ac:	6570                	flw	fa2,76(a0)
 8ae:	00682e73          	csrrs	t3,0x6,a6
 8b2:	0002                	c.slli64	zero
 8b4:	5f00                	lw	s0,56(a4)
 8b6:	69647473          	csrrci	s0,0x696,8
 8ba:	746e                	flw	fs0,248(sp)
 8bc:	682e                	flw	fa6,200(sp)
 8be:	0300                	addi	s0,sp,384
 8c0:	0000                	unimp
 8c2:	6c70                	flw	fa2,92(s0)
 8c4:	6369                	lui	t1,0x1a
 8c6:	682e                	flw	fa6,200(sp)
 8c8:	0400                	addi	s0,sp,512
 8ca:	0000                	unimp
 8cc:	0500                	addi	s0,sp,640
 8ce:	0001                	nop
 8d0:	0205                	addi	tp,tp,1
 8d2:	09f8                	addi	a4,sp,220
 8d4:	2000                	fld	fs0,0(s0)
 8d6:	05012903          	lw	s2,80(sp)
 8da:	0302                	c.slli64	t1
 8dc:	0901                	addi	s2,s2,0
 8de:	0014                	0x14
 8e0:	0501                	addi	a0,a0,0
 8e2:	0301                	addi	t1,t1,0
 8e4:	0901                	addi	s2,s2,0
 8e6:	000c                	0xc
 8e8:	0501                	addi	a0,a0,0
 8ea:	0904030f          	0x904030f
 8ee:	0014                	0x14
 8f0:	0501                	addi	a0,a0,0
 8f2:	0302                	c.slli64	t1
 8f4:	090c                	addi	a1,sp,144
 8f6:	0010                	0x10
 8f8:	0301                	addi	t1,t1,0
 8fa:	0901                	addi	s2,s2,0
 8fc:	0008                	0x8
 8fe:	0301                	addi	t1,t1,0
 900:	0902                	c.slli64	s2
 902:	0008                	0x8
 904:	0301                	addi	t1,t1,0
 906:	0901                	addi	s2,s2,0
 908:	0008                	0x8
 90a:	0301                	addi	t1,t1,0
 90c:	0901                	addi	s2,s2,0
 90e:	000c                	0xc
 910:	0301                	addi	t1,t1,0
 912:	0902                	c.slli64	s2
 914:	000c                	0xc
 916:	0301                	addi	t1,t1,0
 918:	0901                	addi	s2,s2,0
 91a:	0008                	0x8
 91c:	0501                	addi	a0,a0,0
 91e:	0310                	addi	a2,sp,384
 920:	00080903          	lb	s2,0(a6)
 924:	0501                	addi	a0,a0,0
 926:	0901030f          	0x901030f
 92a:	0010                	0x10
 92c:	0501                	addi	a0,a0,0
 92e:	0302                	c.slli64	t1
 930:	090e                	slli	s2,s2,0x3
 932:	000c                	0xc
 934:	0301                	addi	t1,t1,0
 936:	0905                	addi	s2,s2,1
 938:	0008                	0x8
 93a:	0501                	addi	a0,a0,0
 93c:	0309                	addi	t1,t1,2
 93e:	000c0903          	lb	s2,0(s8) # 1d000 <isr_table-0xffe3000>
 942:	0501                	addi	a0,a0,0
 944:	0301                	addi	t1,t1,0
 946:	0901                	addi	s2,s2,0
 948:	0004                	0x4
 94a:	0901                	addi	s2,s2,0
 94c:	0014                	0x14
 94e:	0100                	addi	s0,sp,128
 950:	01              	Address 0x0000000000000950 is out of bounds.


Disassembly of section .debug_str:

00000000 <.debug_str>:
   0:	6f697067          	0x6f697067
   4:	695f 746e 5f72      	0x5f72746e695f
   a:	7974                	flw	fa3,116(a0)
   c:	6570                	flw	fa2,76(a0)
   e:	7600                	flw	fs0,40(a2)
  10:	6c61                	lui	s8,0x18
  12:	6575                	lui	a0,0x1d
  14:	6d00                	flw	fs0,24(a0)
  16:	7361                	lui	t1,0xffff8
  18:	6f6c5f6b          	0x6f6c5f6b
  1c:	5f726577          	0x5f726577
  20:	6168                	flw	fa0,68(a0)
  22:	666c                	flw	fa1,76(a2)
  24:	6200                	flw	fs0,0(a2)
  26:	642f7073          	csrci	0x642,30
  2a:	6972                	flw	fs2,28(sp)
  2c:	6576                	flw	fa0,92(sp)
  2e:	7372                	flw	ft6,60(sp)
  30:	6970672f          	0x6970672f
  34:	70672f6f          	jal	t5,7273a <isr_table-0xff8d8c6>
  38:	6f69                	lui	t5,0x1a
  3a:	632e                	flw	ft6,200(sp)
  3c:	7200                	flw	fs0,32(a2)
  3e:	6765                	lui	a4,0x19
  40:	755f 7070 7265      	0x72657070755f
  46:	6f5f 6666 6573      	0x657366666f5f
  4c:	0074                	addi	a3,sp,12
  4e:	6f697067          	0x6f697067
  52:	645f 7269 6365      	0x63657269645f
  58:	5f74                	lw	a3,124(a4)
  5a:	6962                	flw	fs2,24(sp)
  5c:	5f74                	lw	a3,124(a4)
  5e:	74697277          	0x74697277
  62:	0065                	c.nop	25
  64:	20554e47          	fmsub.s	ft8,fa0,ft5,ft4,rmm
  68:	20373143          	fmadd.s	ft2,fa4,ft3,ft4,rup
  6c:	3031                	jal	fffff878 <_etext+0xdfffedb4>
  6e:	322e                	fld	ft4,232(sp)
  70:	302e                	fld	ft0,232(sp)
  72:	2d20                	fld	fs0,88(a0)
  74:	616d                	addi	sp,sp,240
  76:	6372                	flw	ft6,28(sp)
  78:	3d68                	fld	fa0,248(a0)
  7a:	7672                	flw	fa2,60(sp)
  7c:	20693233          	0x20693233
  80:	6d2d                	lui	s10,0xb
  82:	6261                	lui	tp,0x18
  84:	3d69                	jal	ffffff1e <_etext+0xdffff45a>
  86:	6c69                	lui	s8,0x1a
  88:	3370                	fld	fa2,224(a4)
  8a:	2032                	fld	ft0,264(sp)
  8c:	6d2d                	lui	s10,0xb
  8e:	646f6d63          	bltu	t5,t1,6e8 <isr_table-0xffff918>
  92:	6c65                	lui	s8,0x19
  94:	6d3d                	lui	s10,0xf
  96:	6465                	lui	s0,0x19
  98:	6e61                	lui	t3,0x18
  9a:	2079                	jal	128 <isr_table-0xffffed8>
  9c:	6d2d                	lui	s10,0xb
  9e:	7574                	flw	fa3,108(a0)
  a0:	656e                	flw	fa0,216(sp)
  a2:	723d                	lui	tp,0xfffef
  a4:	656b636f          	jal	t1,b66fa <isr_table-0xff49906>
  a8:	2074                	fld	fa3,192(s0)
  aa:	6d2d                	lui	s10,0xb
  ac:	7261                	lui	tp,0xffff8
  ae:	723d6863          	bltu	s10,gp,7de <isr_table-0xffff822>
  b2:	3376                	fld	ft6,376(sp)
  b4:	6932                	flw	fs2,12(sp)
  b6:	2d20                	fld	fs0,88(a0)
  b8:	70670067          	jr	1798(a4) # 19706 <isr_table-0xffe68fa>
  bc:	6f69                	lui	t5,0x1a
  be:	6d5f 7361 656b      	0x656b73616d5f
  c4:	5f64                	lw	s1,124(a4)
  c6:	74697277          	0x74697277
  ca:	0065                	c.nop	25
  cc:	6f697067          	0x6f697067
  d0:	645f 7269 6365      	0x63657269645f
  d6:	5f74                	lw	a3,124(a4)
  d8:	74697277          	0x74697277
  dc:	0065                	c.nop	25
  de:	726f6873          	csrrsi	a6,0x726,30
  e2:	2074                	fld	fa3,192(s0)
  e4:	6e75                	lui	t3,0x1d
  e6:	6e676973          	csrrsi	s2,0x6e6,14
  ea:	6465                	lui	s0,0x19
  ec:	6920                	flw	fs0,80(a0)
  ee:	746e                	flw	fs0,248(sp)
  f0:	7500                	flw	fs0,40(a0)
  f2:	736e                	flw	ft6,248(sp)
  f4:	6769                	lui	a4,0x1a
  f6:	656e                	flw	fa0,216(sp)
  f8:	2064                	fld	fs1,192(s0)
  fa:	72616863          	bltu	sp,t1,82a <isr_table-0xffff7d6>
  fe:	5f00                	lw	s0,56(a4)
 100:	755f 6e69 3374      	0x33746e69755f
 106:	5f32                	lw	t5,44(sp)
 108:	0074                	addi	a3,sp,12
 10a:	6f697067          	0x6f697067
 10e:	695f 746e 5f72      	0x5f72746e695f
 114:	6e65                	lui	t3,0x19
 116:	6261                	lui	tp,0x18
 118:	656c                	flw	fa1,76(a0)
 11a:	6200                	flw	fs0,0(a2)
 11c:	7361                	lui	t1,0xffff8
 11e:	0065                	c.nop	25
 120:	6572                	flw	fa0,28(sp)
 122:	6f6c5f67          	0x6f6c5f67
 126:	5f726577          	0x5f726577
 12a:	7366666f          	jal	a2,66860 <isr_table-0xff997a0>
 12e:	7465                	lui	s0,0xffff9
 130:	6c00                	flw	fs0,24(s0)
 132:	20676e6f          	jal	t3,76338 <isr_table-0xff89cc8>
 136:	6f6c                	flw	fa1,92(a4)
 138:	676e                	flw	fa4,216(sp)
 13a:	7520                	flw	fs0,104(a0)
 13c:	736e                	flw	ft6,248(sp)
 13e:	6769                	lui	a4,0x1a
 140:	656e                	flw	fa0,216(sp)
 142:	2064                	fld	fs1,192(s0)
 144:	6e69                	lui	t3,0x1a
 146:	0074                	addi	a3,sp,12
 148:	6f697067          	0x6f697067
 14c:	6d5f 7361 656b      	0x656b73616d5f
 152:	5f64                	lw	s1,124(a4)
 154:	6962                	flw	fs2,24(sp)
 156:	5f74                	lw	a3,124(a4)
 158:	74697277          	0x74697277
 15c:	0065                	c.nop	25
 15e:	66696873          	csrrsi	a6,0x666,18
 162:	6574                	flw	fa3,76(a0)
 164:	0064                	addi	s1,sp,12
 166:	6f6c                	flw	fa1,92(a4)
 168:	676e                	flw	fa4,216(sp)
 16a:	6c20                	flw	fs0,88(s0)
 16c:	20676e6f          	jal	t3,76372 <isr_table-0xff89c8e>
 170:	6e69                	lui	t3,0x1a
 172:	0074                	addi	a3,sp,12
 174:	6d6f682f          	0x6d6f682f
 178:	2f65                	jal	930 <isr_table-0xffff6d0>
 17a:	7375                	lui	t1,0xffffd
 17c:	616d                	addi	sp,sp,240
 17e:	2f6e                	fld	ft10,216(sp)
 180:	6f44                	flw	fs1,28(a4)
 182:	656d7563          	bgeu	s10,s6,7cc <isr_table-0xffff834>
 186:	746e                	flw	fs0,248(sp)
 188:	7a612f73          	csrrs	t5,0x7a6,sp
 18c:	6461                	lui	s0,0x18
 18e:	2d69                	jal	828 <isr_table-0xffff7d8>
 190:	006b6473          	csrrsi	s0,0x6,22
 194:	616d                	addi	sp,sp,240
 196:	755f6b73          	csrrsi	s6,0x755,30
 19a:	7070                	flw	fa2,100(s0)
 19c:	7265                	lui	tp,0xffff9
 19e:	685f 6c61 0066      	0x666c61685f
 1a4:	726f6873          	csrrsi	a6,0x726,30
 1a8:	2074                	fld	fa3,192(s0)
 1aa:	6e69                	lui	t3,0x1a
 1ac:	0074                	addi	a3,sp,12
 1ae:	6e69                	lui	t3,0x1a
 1b0:	6564                	flw	fs1,76(a0)
 1b2:	5f78                	lw	a4,124(a4)
 1b4:	6f74                	flw	fa3,92(a4)
 1b6:	6d5f 7361 006b      	0x6b73616d5f
 1bc:	656d                	lui	a0,0x1b
 1be:	5f6d                	li	t5,-5
 1c0:	74697277          	0x74697277
 1c4:	3365                	jal	ffffff6c <_etext+0xdffff4a8>
 1c6:	0032                	c.slli	zero,0xc
 1c8:	425f 6f6f 006c      	0x6c6f6f425f
 1ce:	6962                	flw	fs2,24(sp)
 1d0:	6674                	flw	fa3,76(a2)
 1d2:	6569                	lui	a0,0x1a
 1d4:	646c                	flw	fa1,76(s0)
 1d6:	7000                	flw	fs0,32(s0)
 1d8:	696c                	flw	fa1,84(a0)
 1da:	72695f63          	bge	s2,t1,918 <isr_table-0xffff6e8>
 1de:	5f71                	li	t5,-4
 1e0:	6962                	flw	fs2,24(sp)
 1e2:	5f74                	lw	a3,124(a4)
 1e4:	6e69                	lui	t3,0x1a
 1e6:	6564                	flw	fs1,76(a0)
 1e8:	0078                	addi	a4,sp,12
 1ea:	6c70                	flw	fa2,92(s0)
 1ec:	6369                	lui	t1,0x1a
 1ee:	705f 6972 726f      	0x726f6972705f
 1f4:	7469                	lui	s0,0xffffa
 1f6:	5f79                	li	t5,-2
 1f8:	6572                	flw	fa0,28(sp)
 1fa:	666f5f67          	0x666f5f67
 1fe:	7366                	flw	ft6,120(sp)
 200:	7465                	lui	s0,0xffff9
 202:	7000                	flw	fs0,32(s0)
 204:	696c                	flw	fa1,84(a0)
 206:	72695f63          	bge	s2,t1,944 <isr_table-0xffff6bc>
 20a:	5f71                	li	t5,-4
 20c:	706d6f63          	bltu	s10,t1,92a <isr_table-0xffff6d6>
 210:	656c                	flw	fa1,76(a0)
 212:	6574                	flw	fa3,76(a0)
 214:	6900                	flw	fs0,16(a0)
 216:	746e                	flw	fs0,248(sp)
 218:	695f 0064 6c70      	0x6c700064695f
 21e:	6369                	lui	t1,0x1a
 220:	725f 6765 695f      	0x695f6765725f
 226:	666e                	flw	fa2,216(sp)
 228:	6962006f          	j	208be <isr_table-0xffdf742>
 22c:	6674                	flw	fa3,76(a2)
 22e:	6569                	lui	a0,0x1a
 230:	646c                	flw	fa1,76(s0)
 232:	665f 6569 646c      	0x646c6569665f
 238:	69003233          	0x69003233
 23c:	746e                	flw	fs0,248(sp)
 23e:	7265                	lui	tp,0xffff9
 240:	7572                	flw	fa0,60(sp)
 242:	7470                	flw	fa2,108(s0)
 244:	635f 616c 6d69      	0x6d69616c635f
 24a:	615f 6464 6572      	0x65726464615f
 250:	6c007373          	csrrci	t1,0x6c0,0
 254:	20676e6f          	jal	t3,7645a <isr_table-0xff89ba6>
 258:	6f64                	flw	fs1,92(a4)
 25a:	6275                	lui	tp,0x1d
 25c:	656c                	flw	fa1,76(a0)
 25e:	6900                	flw	fs0,16(a0)
 260:	745f7273          	csrrci	tp,0x745,30
 264:	6261                	lui	tp,0x18
 266:	656c                	flw	fa1,76(a0)
 268:	6200                	flw	fs0,0(a2)
 26a:	642f7073          	csrci	0x642,30
 26e:	6972                	flw	fs2,28(sp)
 270:	6576                	flw	fa0,92(sp)
 272:	7372                	flw	ft6,60(sp)
 274:	696c702f          	0x696c702f
 278:	6c702f63          	0x6c702f63
 27c:	6369                	lui	t1,0x1a
 27e:	632e                	flw	ft6,200(sp)
 280:	5f00                	lw	s0,56(a4)
 282:	755f 6e69 3874      	0x38746e69755f
 288:	745f 6900 746e      	0x746e6900745f
 28e:	7265                	lui	tp,0xffff9
 290:	7572                	flw	fa0,60(sp)
 292:	7470                	flw	fa2,108(s0)
 294:	695f 0064 6c70      	0x6c700064695f
 29a:	6369                	lui	t1,0x1a
 29c:	655f 616e 6c62      	0x6c62616e655f
 2a2:	5f65                	li	t5,-7
 2a4:	6e69                	lui	t3,0x1a
 2a6:	6574                	flw	fa3,76(a0)
 2a8:	7272                	flw	ft4,60(sp)
 2aa:	7075                	c.lui	zero,0xffffd
 2ac:	0074                	addi	a3,sp,12
 2ae:	6962                	flw	fs2,24(sp)
 2b0:	6674                	flw	fa3,76(a2)
 2b2:	6569                	lui	a0,0x1a
 2b4:	646c                	flw	fa1,76(s0)
 2b6:	625f 7469 3233      	0x32337469625f
 2bc:	775f 6972 6574      	0x65746972775f
 2c2:	7000                	flw	fs0,32(s0)
 2c4:	696c                	flw	fa1,84(a0)
 2c6:	65735f63          	bge	t1,s7,924 <isr_table-0xffff6dc>
 2ca:	5f74                	lw	a3,124(a4)
 2cc:	7274                	flw	fa3,100(a2)
 2ce:	6769                	lui	a4,0x1a
 2d0:	5f726567          	0x5f726567
 2d4:	7974                	flw	fa3,116(a0)
 2d6:	6570                	flw	fa2,76(a0)
 2d8:	6200                	flw	fs0,0(a2)
 2da:	7469                	lui	s0,0xffffa
 2dc:	6966                	flw	fs2,88(sp)
 2de:	6c65                	lui	s8,0x19
 2e0:	5f64                	lw	s1,124(a4)
 2e2:	6962                	flw	fs2,24(sp)
 2e4:	3374                	fld	fa3,224(a4)
 2e6:	5f32                	lw	t5,44(sp)
 2e8:	6f74                	flw	fa3,92(a4)
 2ea:	665f 6569 646c      	0x646c6569665f
 2f0:	70003233          	0x70003233
 2f4:	696c                	flw	fa1,84(a0)
 2f6:	65735f63          	bge	t1,s7,954 <isr_table-0xffff6ac>
 2fa:	5f74                	lw	a3,124(a4)
 2fc:	7270                	flw	fa2,100(a2)
 2fe:	6f69                	lui	t5,0x1a
 300:	6972                	flw	fs2,28(sp)
 302:	7974                	flw	fa3,116(a0)
 304:	7000                	flw	fs0,32(s0)
 306:	696c                	flw	fa1,84(a0)
 308:	65735f63          	bge	t1,s7,966 <isr_table-0xffff69a>
 30c:	5f74                	lw	a3,124(a4)
 30e:	6874                	flw	fa3,84(s0)
 310:	6572                	flw	fa0,28(sp)
 312:	6c6f6873          	csrrsi	a6,0x6c6,30
 316:	0064                	addi	s1,sp,12
 318:	7369                	lui	t1,0xffffa
 31a:	5f72                	lw	t5,60(sp)
 31c:	6564                	flw	fs1,76(a0)
 31e:	6166                	flw	ft2,88(sp)
 320:	6c75                	lui	s8,0x1d
 322:	0074                	addi	a3,sp,12
 324:	6e69                	lui	t3,0x1a
 326:	6574                	flw	fa3,76(a0)
 328:	7272                	flw	ft4,60(sp)
 32a:	7075                	c.lui	zero,0xffffd
 32c:	5f74                	lw	a3,124(a4)
 32e:	69616c63          	bltu	sp,s6,9c6 <isr_table-0xffff63a>
 332:	5f6d                	li	t5,-5
 334:	6572                	flw	fa0,28(sp)
 336:	7571                	lui	a0,0xffffc
 338:	7365                	lui	t1,0xffff9
 33a:	0074                	addi	a3,sp,12
 33c:	6962                	flw	fs2,24(sp)
 33e:	6674                	flw	fa3,76(a2)
 340:	6569                	lui	a0,0x1a
 342:	646c                	flw	fa1,76(s0)
 344:	665f 6569 646c      	0x646c6569665f
 34a:	775f3233          	0x775f3233
 34e:	6972                	flw	fs2,28(sp)
 350:	6574                	flw	fa3,76(a0)
 352:	5f00                	lw	s0,56(a4)
 354:	755f 6e69 7074      	0x70746e69755f
 35a:	7274                	flw	fa3,100(a2)
 35c:	745f 7200 6765      	0x67657200745f
 362:	7369                	lui	t1,0xffffa
 364:	6574                	flw	fa3,76(a0)
 366:	5f72                	lw	t5,60(sp)
 368:	6e69                	lui	t3,0x1a
 36a:	6564                	flw	fs1,76(a0)
 36c:	0078                	addi	a4,sp,12
 36e:	69616c63          	bltu	sp,s6,a06 <isr_table-0xffff5fa>
 372:	5f6d                	li	t5,-5
 374:	6164                	flw	fs1,68(a0)
 376:	6174                	flw	fa3,68(a0)
 378:	7000                	flw	fs0,32(s0)
 37a:	696c                	flw	fa1,84(a0)
 37c:	70665f63          	bge	a2,t1,a9a <isr_table-0xffff566>
 380:	7274                	flw	fa3,100(a2)
 382:	745f 7000 696c      	0x696c7000745f
 388:	72695f63          	bge	s2,t1,ac6 <isr_table-0xffff53a>
 38c:	5f71                	li	t5,-4
 38e:	69616c63          	bltu	sp,s6,a26 <isr_table-0xffff5da>
 392:	006d                	c.nop	27
 394:	6c70                	flw	fa2,92(s0)
 396:	6369                	lui	t1,0x1a
 398:	695f 7172 655f      	0x655f7172695f
 39e:	616e                	flw	ft2,216(sp)
 3a0:	6c62                	flw	fs8,24(sp)
 3a2:	5f65                	li	t5,-7
 3a4:	6572                	flw	fa0,28(sp)
 3a6:	6e695f67          	0x6e695f67
 3aa:	6f66                	flw	ft10,88(sp)
 3ac:	6d00                	flw	fs0,24(a0)
 3ae:	6d65                	lui	s10,0x19
 3b0:	725f 6165 3364      	0x33646165725f
 3b6:	0032                	c.slli	zero,0xc
 3b8:	6962                	flw	fs2,24(sp)
 3ba:	6674                	flw	fa3,76(a2)
 3bc:	6569                	lui	a0,0x1a
 3be:	646c                	flw	fa1,76(s0)
 3c0:	665f 6569 646c      	0x646c6569665f
 3c6:	745f3233          	0x745f3233
 3ca:	7000                	flw	fs0,32(s0)
 3cc:	7274                	flw	fa3,100(a2)
 3ce:	6964                	flw	fs1,84(a0)
 3d0:	6666                	flw	fa2,88(sp)
 3d2:	745f 7000 696c      	0x696c7000745f
 3d8:	65725f63          	bge	tp,s7,a36 <isr_table-0xffff5ca>
 3dc:	6e695f67          	0x6e695f67
 3e0:	6f66                	flw	ft10,88(sp)
 3e2:	745f 7000 696c      	0x696c7000745f
 3e8:	666f5f63          	bge	t5,t1,a66 <isr_table-0xffff59a>
 3ec:	7366                	flw	ft6,120(sp)
 3ee:	7465                	lui	s0,0xffff9
 3f0:	665f 6f72 5f6d      	0x5f6d6f72665f
 3f6:	6572                	flw	fa0,28(sp)
 3f8:	6d003067          	0x6d003067
 3fc:	6361                	lui	t1,0x18
 3fe:	5f68                	lw	a0,124(a4)
 400:	6c70                	flw	fa2,92(s0)
 402:	6369                	lui	t1,0x1a
 404:	685f 6e61 6c64      	0x6c646e61685f
 40a:	7265                	lui	tp,0xffff9
 40c:	6300                	flw	fs0,0(a4)
 40e:	6c706d6f          	jal	s10,72d4 <isr_table-0xfff8d2c>
 412:	7465                	lui	s0,0xffff9
 414:	5f65                	li	t5,-7
 416:	6164                	flw	fs1,68(a0)
 418:	6174                	flw	fa3,68(a0)
 41a:	7400                	flw	fs0,40(s0)
 41c:	6172                	flw	ft2,28(sp)
 41e:	5f70                	lw	a2,124(a4)
 420:	6e69                	lui	t3,0x1a
 422:	7469                	lui	s0,0xffffa
 424:	6200                	flw	fs0,0(a2)
 426:	632f7073          	csrci	0x632,30
 42a:	2f65726f          	jal	tp,57720 <isr_table-0xffa88e0>
 42e:	6e69                	lui	t3,0x1a
 430:	7469                	lui	s0,0xffffa
 432:	632e                	flw	ft6,200(sp)
 434:	6d00                	flw	fs0,24(a0)
 436:	73756163          	bltu	a0,s7,b58 <isr_table-0xffff4a8>
 43a:	5f65                	li	t5,-7
 43c:	7274                	flw	fa3,100(a2)
 43e:	7061                	c.lui	zero,0xffff8
 440:	745f 6261 656c      	0x656c6261745f
 446:	6d00                	flw	fs0,24(a0)
 448:	6961                	lui	s2,0x18
 44a:	006e                	c.slli	zero,0x1b
 44c:	746d                	lui	s0,0xffffb
 44e:	6172                	flw	ft2,28(sp)
 450:	5f70                	lw	a2,124(a4)
 452:	7066                	flw	ft0,120(sp)
 454:	7274                	flw	fa3,100(a2)
 456:	745f 6d00 6163      	0x61636d00745f
 45c:	7375                	lui	t1,0xffffd
 45e:	5f65                	li	t5,-7
 460:	6e69                	lui	t3,0x1a
 462:	6574                	flw	fa3,76(a0)
 464:	7272                	flw	ft4,60(sp)
 466:	7075                	c.lui	zero,0xffffd
 468:	5f74                	lw	a3,124(a4)
 46a:	6174                	flw	fa3,68(a0)
 46c:	6c62                	flw	fs8,24(sp)
 46e:	0065                	c.nop	25
 470:	7865                	lui	a6,0xffff9
 472:	7274                	flw	fa3,100(a2)
 474:	6361                	lui	t1,0x18
 476:	5f74                	lw	a3,124(a4)
 478:	6569                	lui	a0,0x1a
 47a:	635f 646f 0065      	0x65646f635f
 480:	66696873          	csrrsi	a6,0x666,18
 484:	5f74                	lw	a3,124(a4)
 486:	656c                	flw	fa1,76(a0)
 488:	676e                	flw	fa4,216(sp)
 48a:	6874                	flw	fa3,84(s0)
 48c:	6800                	flw	fs0,16(s0)
 48e:	6e61                	lui	t3,0x18
 490:	6c64                	flw	fs1,92(s0)
 492:	5f65                	li	t5,-7
 494:	7274                	flw	fa3,100(a2)
 496:	7061                	c.lui	zero,0xffff8
 498:	6d00                	flw	fs0,24(a0)
 49a:	73756163          	bltu	a0,s7,bbc <isr_table-0xffff444>
 49e:	0065                	c.nop	25
 4a0:	7865                	lui	a6,0xffff9
 4a2:	74706563          	bltu	zero,t2,bec <isr_table-0xffff414>
 4a6:	6f69                	lui	t5,0x1a
 4a8:	5f6e                	lw	t5,248(sp)
 4aa:	65646f63          	bltu	s0,s6,b08 <isr_table-0xffff4f8>
 4ae:	6400                	flw	fs0,8(s0)
 4b0:	6665                	lui	a2,0x19
 4b2:	7561                	lui	a0,0xffff8
 4b4:	746c                	flw	fa1,108(s0)
 4b6:	685f 6e61 6c64      	0x6c646e61685f
 4bc:	7265                	lui	tp,0xffff9
 4be:	6200                	flw	fs0,0(a2)
 4c0:	632f7073          	csrci	0x632,30
 4c4:	2f65726f          	jal	tp,577ba <isr_table-0xffa8846>
 4c8:	7274                	flw	fa3,100(a2)
 4ca:	7061                	c.lui	zero,0xffff8
 4cc:	632e                	flw	ft6,200(sp)
 4ce:	6900                	flw	fs0,16(a0)
 4d0:	5f65                	li	t5,-7
 4d2:	6e65                	lui	t3,0x19
 4d4:	7274                	flw	fa3,100(a2)
 4d6:	0079                	c.nop	30
 4d8:	74666f73          	csrrsi	t5,0x746,12
 4dc:	65726177          	0x65726177
 4e0:	6c702f73          	csrr	t5,0x6c7
 4e4:	6369                	lui	t1,0x1a
 4e6:	745f 7365 2f74      	0x2f747365745f
 4ec:	6c70                	flw	fa2,92(s0)
 4ee:	6369                	lui	t1,0x1a
 4f0:	745f 7365 2e74      	0x2e747365745f
 4f6:	65720063          	beq	tp,s7,b36 <isr_table-0xffff4ca>
 4fa:	7674                	flw	fa3,108(a2)
 4fc:	6c61                	lui	s8,0x18
 4fe:	6800                	flw	fs0,16(s0)
 500:	6e61                	lui	t3,0x18
 502:	6c64                	flw	fs1,92(s0)
 504:	5f65                	li	t5,-7
 506:	7562                	flw	fa0,56(sp)
 508:	7474                	flw	fa3,108(s0)
 50a:	705f6e6f          	jal	t3,f740e <isr_table-0xff08bf2>
 50e:	6572                	flw	fa0,28(sp)
 510:	          	csrrci	t1,ustatus,0

Disassembly of section .debug_frame:

00000000 <.debug_frame>:
   0:	000c                	0xc
   2:	0000                	unimp
   4:	ffff                	0xffff
   6:	ffff                	0xffff
   8:	7c010003          	lb	zero,1984(sp)
   c:	0d01                	addi	s10,s10,0
   e:	0002                	c.slli64	zero
  10:	0020                	addi	s0,sp,8
  12:	0000                	unimp
  14:	0000                	unimp
  16:	0000                	unimp
  18:	0144                	addi	s1,sp,132
  1a:	2000                	fld	fs0,0(s0)
  1c:	002c                	addi	a1,sp,8
  1e:	0000                	unimp
  20:	0e44                	addi	s1,sp,788
  22:	4420                	lw	s0,72(s0)
  24:	0188                	addi	a0,sp,192
  26:	0c44                	addi	s1,sp,532
  28:	0008                	0x8
  2a:	c858                	sw	a4,20(s0)
  2c:	020c                	addi	a1,sp,256
  2e:	4420                	lw	s0,72(s0)
  30:	000e                	c.slli	zero,0x3
  32:	0000                	unimp
  34:	0020                	addi	s0,sp,8
  36:	0000                	unimp
  38:	0000                	unimp
  3a:	0000                	unimp
  3c:	0170                	addi	a2,sp,140
  3e:	2000                	fld	fs0,0(s0)
  40:	0044                	addi	s1,sp,4
  42:	0000                	unimp
  44:	0e44                	addi	s1,sp,788
  46:	4420                	lw	s0,72(s0)
  48:	0188                	addi	a0,sp,192
  4a:	0c44                	addi	s1,sp,532
  4c:	0008                	0x8
  4e:	c870                	sw	a2,84(s0)
  50:	020c                	addi	a1,sp,256
  52:	4420                	lw	s0,72(s0)
  54:	000e                	c.slli	zero,0x3
  56:	0000                	unimp
  58:	0024                	addi	s1,sp,8
  5a:	0000                	unimp
  5c:	0000                	unimp
  5e:	0000                	unimp
  60:	01b4                	addi	a3,sp,200
  62:	2000                	fld	fs0,0(s0)
  64:	006c                	addi	a1,sp,12
  66:	0000                	unimp
  68:	0e44                	addi	s1,sp,788
  6a:	4830                	lw	a2,80(s0)
  6c:	0181                	addi	gp,gp,0
  6e:	0288                	addi	a0,sp,320
  70:	0c44                	addi	s1,sp,532
  72:	0008                	0x8
  74:	5002                	0x5002
  76:	44c1                	li	s1,16
  78:	0cc8                	addi	a0,sp,596
  7a:	3002                	fld	ft0,32(sp)
  7c:	0e44                	addi	s1,sp,788
  7e:	0000                	unimp
  80:	0024                	addi	s1,sp,8
  82:	0000                	unimp
  84:	0000                	unimp
  86:	0000                	unimp
  88:	0220                	addi	s0,sp,264
  8a:	2000                	fld	fs0,0(s0)
  8c:	0038                	addi	a4,sp,8
  8e:	0000                	unimp
  90:	0e44                	addi	s1,sp,788
  92:	4820                	lw	s0,80(s0)
  94:	0181                	addi	gp,gp,0
  96:	0288                	addi	a0,sp,320
  98:	0c44                	addi	s1,sp,532
  9a:	0008                	0x8
  9c:	c15c                	sw	a5,4(a0)
  9e:	c844                	sw	s1,20(s0)
  a0:	020c                	addi	a1,sp,256
  a2:	4420                	lw	s0,72(s0)
  a4:	000e                	c.slli	zero,0x3
  a6:	0000                	unimp
  a8:	0024                	addi	s1,sp,8
  aa:	0000                	unimp
  ac:	0000                	unimp
  ae:	0000                	unimp
  b0:	0258                	addi	a4,sp,260
  b2:	2000                	fld	fs0,0(s0)
  b4:	0038                	addi	a4,sp,8
  b6:	0000                	unimp
  b8:	0e44                	addi	s1,sp,788
  ba:	4820                	lw	s0,80(s0)
  bc:	0181                	addi	gp,gp,0
  be:	0288                	addi	a0,sp,320
  c0:	0c44                	addi	s1,sp,532
  c2:	0008                	0x8
  c4:	c15c                	sw	a5,4(a0)
  c6:	c844                	sw	s1,20(s0)
  c8:	020c                	addi	a1,sp,256
  ca:	4420                	lw	s0,72(s0)
  cc:	000e                	c.slli	zero,0x3
  ce:	0000                	unimp
  d0:	0024                	addi	s1,sp,8
  d2:	0000                	unimp
  d4:	0000                	unimp
  d6:	0000                	unimp
  d8:	0290                	addi	a2,sp,320
  da:	2000                	fld	fs0,0(s0)
  dc:	00b4                	addi	a3,sp,72
  de:	0000                	unimp
  e0:	0e44                	addi	s1,sp,788
  e2:	4830                	lw	a2,80(s0)
  e4:	0181                	addi	gp,gp,0
  e6:	0288                	addi	a0,sp,320
  e8:	0c44                	addi	s1,sp,532
  ea:	0008                	0x8
  ec:	9802                	jalr	a6
  ee:	44c1                	li	s1,16
  f0:	0cc8                	addi	a0,sp,596
  f2:	3002                	fld	ft0,32(sp)
  f4:	0e44                	addi	s1,sp,788
  f6:	0000                	unimp
  f8:	0024                	addi	s1,sp,8
  fa:	0000                	unimp
  fc:	0000                	unimp
  fe:	0000                	unimp
 100:	0344                	addi	s1,sp,388
 102:	2000                	fld	fs0,0(s0)
 104:	0068                	addi	a0,sp,12
 106:	0000                	unimp
 108:	0e44                	addi	s1,sp,788
 10a:	4830                	lw	a2,80(s0)
 10c:	0181                	addi	gp,gp,0
 10e:	0288                	addi	a0,sp,320
 110:	0c44                	addi	s1,sp,532
 112:	0008                	0x8
 114:	4c02                	lw	s8,0(sp)
 116:	44c1                	li	s1,16
 118:	0cc8                	addi	a0,sp,596
 11a:	3002                	fld	ft0,32(sp)
 11c:	0e44                	addi	s1,sp,788
 11e:	0000                	unimp
 120:	0024                	addi	s1,sp,8
 122:	0000                	unimp
 124:	0000                	unimp
 126:	0000                	unimp
 128:	03ac                	addi	a1,sp,456
 12a:	2000                	fld	fs0,0(s0)
 12c:	004c                	addi	a1,sp,4
 12e:	0000                	unimp
 130:	0e44                	addi	s1,sp,788
 132:	4820                	lw	s0,80(s0)
 134:	0181                	addi	gp,gp,0
 136:	0288                	addi	a0,sp,320
 138:	0c44                	addi	s1,sp,532
 13a:	0008                	0x8
 13c:	c170                	sw	a2,68(a0)
 13e:	c844                	sw	s1,20(s0)
 140:	020c                	addi	a1,sp,256
 142:	4420                	lw	s0,72(s0)
 144:	000e                	c.slli	zero,0x3
 146:	0000                	unimp
 148:	000c                	0xc
 14a:	0000                	unimp
 14c:	ffff                	0xffff
 14e:	ffff                	0xffff
 150:	7c010003          	lb	zero,1984(sp)
 154:	0d01                	addi	s10,s10,0
 156:	0002                	c.slli64	zero
 158:	0020                	addi	s0,sp,8
 15a:	0000                	unimp
 15c:	0148                	addi	a0,sp,132
 15e:	0000                	unimp
 160:	03f8                	addi	a4,sp,460
 162:	2000                	fld	fs0,0(s0)
 164:	002c                	addi	a1,sp,8
 166:	0000                	unimp
 168:	0e44                	addi	s1,sp,788
 16a:	4420                	lw	s0,72(s0)
 16c:	0188                	addi	a0,sp,192
 16e:	0c44                	addi	s1,sp,532
 170:	0008                	0x8
 172:	c858                	sw	a4,20(s0)
 174:	020c                	addi	a1,sp,256
 176:	4420                	lw	s0,72(s0)
 178:	000e                	c.slli	zero,0x3
 17a:	0000                	unimp
 17c:	0020                	addi	s0,sp,8
 17e:	0000                	unimp
 180:	0148                	addi	a0,sp,132
 182:	0000                	unimp
 184:	0424                	addi	s1,sp,520
 186:	2000                	fld	fs0,0(s0)
 188:	0038                	addi	a4,sp,8
 18a:	0000                	unimp
 18c:	0e44                	addi	s1,sp,788
 18e:	4420                	lw	s0,72(s0)
 190:	0188                	addi	a0,sp,192
 192:	0c44                	addi	s1,sp,532
 194:	0008                	0x8
 196:	c864                	sw	s1,84(s0)
 198:	020c                	addi	a1,sp,256
 19a:	4420                	lw	s0,72(s0)
 19c:	000e                	c.slli	zero,0x3
 19e:	0000                	unimp
 1a0:	0020                	addi	s0,sp,8
 1a2:	0000                	unimp
 1a4:	0148                	addi	a0,sp,132
 1a6:	0000                	unimp
 1a8:	045c                	addi	a5,sp,516
 1aa:	2000                	fld	fs0,0(s0)
 1ac:	004c                	addi	a1,sp,4
 1ae:	0000                	unimp
 1b0:	0e44                	addi	s1,sp,788
 1b2:	4430                	lw	a2,72(s0)
 1b4:	0188                	addi	a0,sp,192
 1b6:	0c44                	addi	s1,sp,532
 1b8:	0008                	0x8
 1ba:	c878                	sw	a4,84(s0)
 1bc:	020c                	addi	a1,sp,256
 1be:	4430                	lw	a2,72(s0)
 1c0:	000e                	c.slli	zero,0x3
 1c2:	0000                	unimp
 1c4:	0020                	addi	s0,sp,8
 1c6:	0000                	unimp
 1c8:	0148                	addi	a0,sp,132
 1ca:	0000                	unimp
 1cc:	04a8                	addi	a0,sp,584
 1ce:	2000                	fld	fs0,0(s0)
 1d0:	006c                	addi	a1,sp,12
 1d2:	0000                	unimp
 1d4:	0e44                	addi	s1,sp,788
 1d6:	4420                	lw	s0,72(s0)
 1d8:	0188                	addi	a0,sp,192
 1da:	0c44                	addi	s1,sp,532
 1dc:	0008                	0x8
 1de:	5802                	lw	a6,32(sp)
 1e0:	0cc8                	addi	a0,sp,596
 1e2:	2002                	fld	ft0,0(sp)
 1e4:	0e44                	addi	s1,sp,788
 1e6:	0000                	unimp
 1e8:	0024                	addi	s1,sp,8
 1ea:	0000                	unimp
 1ec:	0148                	addi	a0,sp,132
 1ee:	0000                	unimp
 1f0:	0514                	addi	a3,sp,640
 1f2:	2000                	fld	fs0,0(s0)
 1f4:	0078                	addi	a4,sp,12
 1f6:	0000                	unimp
 1f8:	0e44                	addi	s1,sp,788
 1fa:	4830                	lw	a2,80(s0)
 1fc:	0181                	addi	gp,gp,0
 1fe:	0288                	addi	a0,sp,320
 200:	0c44                	addi	s1,sp,532
 202:	0008                	0x8
 204:	5c02                	lw	s8,32(sp)
 206:	44c1                	li	s1,16
 208:	0cc8                	addi	a0,sp,596
 20a:	3002                	fld	ft0,32(sp)
 20c:	0e44                	addi	s1,sp,788
 20e:	0000                	unimp
 210:	0020                	addi	s0,sp,8
 212:	0000                	unimp
 214:	0148                	addi	a0,sp,132
 216:	0000                	unimp
 218:	058c                	addi	a1,sp,704
 21a:	2000                	fld	fs0,0(s0)
 21c:	0034                	addi	a3,sp,8
 21e:	0000                	unimp
 220:	0e44                	addi	s1,sp,788
 222:	4430                	lw	a2,72(s0)
 224:	0188                	addi	a0,sp,192
 226:	0c44                	addi	s1,sp,532
 228:	0008                	0x8
 22a:	c860                	sw	s0,84(s0)
 22c:	020c                	addi	a1,sp,256
 22e:	4430                	lw	a2,72(s0)
 230:	000e                	c.slli	zero,0x3
 232:	0000                	unimp
 234:	0020                	addi	s0,sp,8
 236:	0000                	unimp
 238:	0148                	addi	a0,sp,132
 23a:	0000                	unimp
 23c:	05c0                	addi	s0,sp,708
 23e:	2000                	fld	fs0,0(s0)
 240:	0034                	addi	a3,sp,8
 242:	0000                	unimp
 244:	0e44                	addi	s1,sp,788
 246:	4430                	lw	a2,72(s0)
 248:	0188                	addi	a0,sp,192
 24a:	0c44                	addi	s1,sp,532
 24c:	0008                	0x8
 24e:	c860                	sw	s0,84(s0)
 250:	020c                	addi	a1,sp,256
 252:	4430                	lw	a2,72(s0)
 254:	000e                	c.slli	zero,0x3
 256:	0000                	unimp
 258:	0020                	addi	s0,sp,8
 25a:	0000                	unimp
 25c:	0148                	addi	a0,sp,132
 25e:	0000                	unimp
 260:	05f4                	addi	a3,sp,716
 262:	2000                	fld	fs0,0(s0)
 264:	0030                	addi	a2,sp,8
 266:	0000                	unimp
 268:	0e44                	addi	s1,sp,788
 26a:	4420                	lw	s0,72(s0)
 26c:	0188                	addi	a0,sp,192
 26e:	0c44                	addi	s1,sp,532
 270:	0008                	0x8
 272:	c85c                	sw	a5,20(s0)
 274:	020c                	addi	a1,sp,256
 276:	4420                	lw	s0,72(s0)
 278:	000e                	c.slli	zero,0x3
 27a:	0000                	unimp
 27c:	0030                	addi	a2,sp,8
 27e:	0000                	unimp
 280:	0148                	addi	a0,sp,132
 282:	0000                	unimp
 284:	0624                	addi	s1,sp,776
 286:	2000                	fld	fs0,0(s0)
 288:	0084                	addi	s1,sp,64
 28a:	0000                	unimp
 28c:	0e44                	addi	s1,sp,788
 28e:	5450                	lw	a2,44(s0)
 290:	0181                	addi	gp,gp,0
 292:	0288                	addi	a0,sp,320
 294:	0389                	addi	t2,t2,2
 296:	0492                	slli	s1,s1,0x4
 298:	0c440593          	addi	a1,s0,196 # ffffb0c4 <_etext+0xdfffa600>
 29c:	0008                	0x8
 29e:	5002                	0x5002
 2a0:	44c1                	li	s1,16
 2a2:	0cc8                	addi	a0,sp,596
 2a4:	5002                	0x5002
 2a6:	c944                	sw	s1,20(a0)
 2a8:	d244                	sw	s1,36(a2)
 2aa:	d344                	sw	s1,36(a4)
 2ac:	0e44                	addi	s1,sp,788
 2ae:	0000                	unimp
 2b0:	0020                	addi	s0,sp,8
 2b2:	0000                	unimp
 2b4:	0148                	addi	a0,sp,132
 2b6:	0000                	unimp
 2b8:	06a8                	addi	a0,sp,840
 2ba:	2000                	fld	fs0,0(s0)
 2bc:	003c                	addi	a5,sp,8
 2be:	0000                	unimp
 2c0:	0e44                	addi	s1,sp,788
 2c2:	4420                	lw	s0,72(s0)
 2c4:	0188                	addi	a0,sp,192
 2c6:	0c44                	addi	s1,sp,532
 2c8:	0008                	0x8
 2ca:	c868                	sw	a0,84(s0)
 2cc:	020c                	addi	a1,sp,256
 2ce:	4420                	lw	s0,72(s0)
 2d0:	000e                	c.slli	zero,0x3
 2d2:	0000                	unimp
 2d4:	0024                	addi	s1,sp,8
 2d6:	0000                	unimp
 2d8:	0148                	addi	a0,sp,132
 2da:	0000                	unimp
 2dc:	06e4                	addi	s1,sp,844
 2de:	2000                	fld	fs0,0(s0)
 2e0:	0064                	addi	s1,sp,12
 2e2:	0000                	unimp
 2e4:	0e44                	addi	s1,sp,788
 2e6:	4830                	lw	a2,80(s0)
 2e8:	0181                	addi	gp,gp,0
 2ea:	0288                	addi	a0,sp,320
 2ec:	0c44                	addi	s1,sp,532
 2ee:	0008                	0x8
 2f0:	4802                	lw	a6,0(sp)
 2f2:	44c1                	li	s1,16
 2f4:	0cc8                	addi	a0,sp,596
 2f6:	3002                	fld	ft0,32(sp)
 2f8:	0e44                	addi	s1,sp,788
 2fa:	0000                	unimp
 2fc:	0024                	addi	s1,sp,8
 2fe:	0000                	unimp
 300:	0148                	addi	a0,sp,132
 302:	0000                	unimp
 304:	0748                	addi	a0,sp,900
 306:	2000                	fld	fs0,0(s0)
 308:	0050                	addi	a2,sp,4
 30a:	0000                	unimp
 30c:	0e44                	addi	s1,sp,788
 30e:	4830                	lw	a2,80(s0)
 310:	0181                	addi	gp,gp,0
 312:	0288                	addi	a0,sp,320
 314:	0c44                	addi	s1,sp,532
 316:	0008                	0x8
 318:	c174                	sw	a3,68(a0)
 31a:	c844                	sw	s1,20(s0)
 31c:	020c                	addi	a1,sp,256
 31e:	4430                	lw	a2,72(s0)
 320:	000e                	c.slli	zero,0x3
 322:	0000                	unimp
 324:	0024                	addi	s1,sp,8
 326:	0000                	unimp
 328:	0148                	addi	a0,sp,132
 32a:	0000                	unimp
 32c:	0798                	addi	a4,sp,960
 32e:	2000                	fld	fs0,0(s0)
 330:	0038                	addi	a4,sp,8
 332:	0000                	unimp
 334:	0e44                	addi	s1,sp,788
 336:	4820                	lw	s0,80(s0)
 338:	0181                	addi	gp,gp,0
 33a:	0288                	addi	a0,sp,320
 33c:	0c44                	addi	s1,sp,532
 33e:	0008                	0x8
 340:	c15c                	sw	a5,4(a0)
 342:	c844                	sw	s1,20(s0)
 344:	020c                	addi	a1,sp,256
 346:	4420                	lw	s0,72(s0)
 348:	000e                	c.slli	zero,0x3
 34a:	0000                	unimp
 34c:	0024                	addi	s1,sp,8
 34e:	0000                	unimp
 350:	0148                	addi	a0,sp,132
 352:	0000                	unimp
 354:	07d0                	addi	a2,sp,964
 356:	2000                	fld	fs0,0(s0)
 358:	004c                	addi	a1,sp,4
 35a:	0000                	unimp
 35c:	0e44                	addi	s1,sp,788
 35e:	4830                	lw	a2,80(s0)
 360:	0181                	addi	gp,gp,0
 362:	0288                	addi	a0,sp,320
 364:	0c44                	addi	s1,sp,532
 366:	0008                	0x8
 368:	c170                	sw	a2,68(a0)
 36a:	c844                	sw	s1,20(s0)
 36c:	020c                	addi	a1,sp,256
 36e:	4430                	lw	a2,72(s0)
 370:	000e                	c.slli	zero,0x3
 372:	0000                	unimp
 374:	0024                	addi	s1,sp,8
 376:	0000                	unimp
 378:	0148                	addi	a0,sp,132
 37a:	0000                	unimp
 37c:	081c                	addi	a5,sp,16
 37e:	2000                	fld	fs0,0(s0)
 380:	0038                	addi	a4,sp,8
 382:	0000                	unimp
 384:	0e44                	addi	s1,sp,788
 386:	4820                	lw	s0,80(s0)
 388:	0181                	addi	gp,gp,0
 38a:	0288                	addi	a0,sp,320
 38c:	0c44                	addi	s1,sp,532
 38e:	0008                	0x8
 390:	c15c                	sw	a5,4(a0)
 392:	c844                	sw	s1,20(s0)
 394:	020c                	addi	a1,sp,256
 396:	4420                	lw	s0,72(s0)
 398:	000e                	c.slli	zero,0x3
 39a:	0000                	unimp
 39c:	0024                	addi	s1,sp,8
 39e:	0000                	unimp
 3a0:	0148                	addi	a0,sp,132
 3a2:	0000                	unimp
 3a4:	0854                	addi	a3,sp,20
 3a6:	2000                	fld	fs0,0(s0)
 3a8:	0040                	addi	s0,sp,4
 3aa:	0000                	unimp
 3ac:	0e44                	addi	s1,sp,788
 3ae:	4820                	lw	s0,80(s0)
 3b0:	0181                	addi	gp,gp,0
 3b2:	0288                	addi	a0,sp,320
 3b4:	0c44                	addi	s1,sp,532
 3b6:	0008                	0x8
 3b8:	c164                	sw	s1,68(a0)
 3ba:	c844                	sw	s1,20(s0)
 3bc:	020c                	addi	a1,sp,256
 3be:	4420                	lw	s0,72(s0)
 3c0:	000e                	c.slli	zero,0x3
 3c2:	0000                	unimp
 3c4:	0024                	addi	s1,sp,8
 3c6:	0000                	unimp
 3c8:	0148                	addi	a0,sp,132
 3ca:	0000                	unimp
 3cc:	0894                	addi	a3,sp,80
 3ce:	2000                	fld	fs0,0(s0)
 3d0:	0040                	addi	s0,sp,4
 3d2:	0000                	unimp
 3d4:	0e44                	addi	s1,sp,788
 3d6:	4820                	lw	s0,80(s0)
 3d8:	0181                	addi	gp,gp,0
 3da:	0288                	addi	a0,sp,320
 3dc:	0c44                	addi	s1,sp,532
 3de:	0008                	0x8
 3e0:	c164                	sw	s1,68(a0)
 3e2:	c844                	sw	s1,20(s0)
 3e4:	020c                	addi	a1,sp,256
 3e6:	4420                	lw	s0,72(s0)
 3e8:	000e                	c.slli	zero,0x3
 3ea:	0000                	unimp
 3ec:	0020                	addi	s0,sp,8
 3ee:	0000                	unimp
 3f0:	0148                	addi	a0,sp,132
 3f2:	0000                	unimp
 3f4:	08d4                	addi	a3,sp,84
 3f6:	2000                	fld	fs0,0(s0)
 3f8:	0020                	addi	s0,sp,8
 3fa:	0000                	unimp
 3fc:	0e44                	addi	s1,sp,788
 3fe:	4420                	lw	s0,72(s0)
 400:	0188                	addi	a0,sp,192
 402:	0c44                	addi	s1,sp,532
 404:	0008                	0x8
 406:	c84c                	sw	a1,20(s0)
 408:	020c                	addi	a1,sp,256
 40a:	4420                	lw	s0,72(s0)
 40c:	000e                	c.slli	zero,0x3
 40e:	0000                	unimp
 410:	000c                	0xc
 412:	0000                	unimp
 414:	ffff                	0xffff
 416:	ffff                	0xffff
 418:	7c010003          	lb	zero,1984(sp)
 41c:	0d01                	addi	s10,s10,0
 41e:	0002                	c.slli64	zero
 420:	0020                	addi	s0,sp,8
 422:	0000                	unimp
 424:	0410                	addi	a2,sp,512
 426:	0000                	unimp
 428:	08f4                	addi	a3,sp,92
 42a:	2000                	fld	fs0,0(s0)
 42c:	003c                	addi	a5,sp,8
 42e:	0000                	unimp
 430:	0e44                	addi	s1,sp,788
 432:	4410                	lw	a2,8(s0)
 434:	0188                	addi	a0,sp,192
 436:	0c44                	addi	s1,sp,532
 438:	0008                	0x8
 43a:	c868                	sw	a0,84(s0)
 43c:	020c                	addi	a1,sp,256
 43e:	4410                	lw	a2,8(s0)
 440:	000e                	c.slli	zero,0x3
 442:	0000                	unimp
 444:	0024                	addi	s1,sp,8
 446:	0000                	unimp
 448:	0410                	addi	a2,sp,512
 44a:	0000                	unimp
 44c:	0930                	addi	a2,sp,152
 44e:	2000                	fld	fs0,0(s0)
 450:	002c                	addi	a1,sp,8
 452:	0000                	unimp
 454:	0e44                	addi	s1,sp,788
 456:	4810                	lw	a2,16(s0)
 458:	0181                	addi	gp,gp,0
 45a:	0288                	addi	a0,sp,320
 45c:	0c44                	addi	s1,sp,532
 45e:	0008                	0x8
 460:	c150                	sw	a2,4(a0)
 462:	c844                	sw	s1,20(s0)
 464:	020c                	addi	a1,sp,256
 466:	4410                	lw	a2,8(s0)
 468:	000e                	c.slli	zero,0x3
 46a:	0000                	unimp
 46c:	000c                	0xc
 46e:	0000                	unimp
 470:	ffff                	0xffff
 472:	ffff                	0xffff
 474:	7c010003          	lb	zero,1984(sp)
 478:	0d01                	addi	s10,s10,0
 47a:	0002                	c.slli64	zero
 47c:	0020                	addi	s0,sp,8
 47e:	0000                	unimp
 480:	046c                	addi	a1,sp,524
 482:	0000                	unimp
 484:	095c                	addi	a5,sp,148
 486:	2000                	fld	fs0,0(s0)
 488:	0038                	addi	a4,sp,8
 48a:	0000                	unimp
 48c:	0e44                	addi	s1,sp,788
 48e:	4430                	lw	a2,72(s0)
 490:	0188                	addi	a0,sp,192
 492:	0c44                	addi	s1,sp,532
 494:	0008                	0x8
 496:	c864                	sw	s1,84(s0)
 498:	020c                	addi	a1,sp,256
 49a:	4430                	lw	a2,72(s0)
 49c:	000e                	c.slli	zero,0x3
 49e:	0000                	unimp
 4a0:	0018                	0x18
 4a2:	0000                	unimp
 4a4:	046c                	addi	a1,sp,524
 4a6:	0000                	unimp
 4a8:	0994                	addi	a3,sp,208
 4aa:	2000                	fld	fs0,0(s0)
 4ac:	0018                	0x18
 4ae:	0000                	unimp
 4b0:	0e44                	addi	s1,sp,788
 4b2:	4420                	lw	s0,72(s0)
 4b4:	0188                	addi	a0,sp,192
 4b6:	0c44                	addi	s1,sp,532
 4b8:	0008                	0x8
 4ba:	0000                	unimp
 4bc:	0024                	addi	s1,sp,8
 4be:	0000                	unimp
 4c0:	046c                	addi	a1,sp,524
 4c2:	0000                	unimp
 4c4:	09ac                	addi	a1,sp,216
 4c6:	2000                	fld	fs0,0(s0)
 4c8:	004c                	addi	a1,sp,4
 4ca:	0000                	unimp
 4cc:	0e44                	addi	s1,sp,788
 4ce:	4830                	lw	a2,80(s0)
 4d0:	0181                	addi	gp,gp,0
 4d2:	0288                	addi	a0,sp,320
 4d4:	0c44                	addi	s1,sp,532
 4d6:	0008                	0x8
 4d8:	c170                	sw	a2,68(a0)
 4da:	c844                	sw	s1,20(s0)
 4dc:	020c                	addi	a1,sp,256
 4de:	4430                	lw	a2,72(s0)
 4e0:	000e                	c.slli	zero,0x3
 4e2:	0000                	unimp
 4e4:	000c                	0xc
 4e6:	0000                	unimp
 4e8:	ffff                	0xffff
 4ea:	ffff                	0xffff
 4ec:	7c010003          	lb	zero,1984(sp)
 4f0:	0d01                	addi	s10,s10,0
 4f2:	0002                	c.slli64	zero
 4f4:	0024                	addi	s1,sp,8
 4f6:	0000                	unimp
 4f8:	04e4                	addi	s1,sp,588
 4fa:	0000                	unimp
 4fc:	09f8                	addi	a4,sp,220
 4fe:	2000                	fld	fs0,0(s0)
 500:	0034                	addi	a3,sp,8
 502:	0000                	unimp
 504:	0e44                	addi	s1,sp,788
 506:	4820                	lw	s0,80(s0)
 508:	0181                	addi	gp,gp,0
 50a:	0288                	addi	a0,sp,320
 50c:	0c44                	addi	s1,sp,532
 50e:	0008                	0x8
 510:	c158                	sw	a4,4(a0)
 512:	c844                	sw	s1,20(s0)
 514:	020c                	addi	a1,sp,256
 516:	4420                	lw	s0,72(s0)
 518:	000e                	c.slli	zero,0x3
 51a:	0000                	unimp
 51c:	0024                	addi	s1,sp,8
 51e:	0000                	unimp
 520:	04e4                	addi	s1,sp,588
 522:	0000                	unimp
 524:	0a2c                	addi	a1,sp,280
 526:	2000                	fld	fs0,0(s0)
 528:	0098                	addi	a4,sp,64
 52a:	0000                	unimp
 52c:	0e44                	addi	s1,sp,788
 52e:	4810                	lw	a2,16(s0)
 530:	0181                	addi	gp,gp,0
 532:	0288                	addi	a0,sp,320
 534:	0c44                	addi	s1,sp,532
 536:	0008                	0x8
 538:	7c02                	flw	fs8,32(sp)
 53a:	44c1                	li	s1,16
 53c:	0cc8                	addi	a0,sp,596
 53e:	1002                	c.slli	zero,0x20
 540:	0e44                	addi	s1,sp,788
 542:	0000                	unimp
