
softwares/plic_test/output/plic_test.merl:     file format elf32-littleriscv


Disassembly of section .init:

00000000 <_start>:
   0:	10000197          	auipc	gp,0x10000
   4:	00018193          	mv	gp,gp
   8:	10001117          	auipc	sp,0x10001
   c:	ff810113          	addi	sp,sp,-8 # 10001000 <__stack_top>
  10:	00010433          	add	s0,sp,zero
  14:	2450006f          	j	a58 <main>

Disassembly of section .text:

00000018 <_stext>:
  18:	f8010113          	addi	sp,sp,-128
  1c:	00000013          	nop
  20:	00112223          	sw	ra,4(sp)
  24:	00212423          	sw	sp,8(sp)
  28:	00312623          	sw	gp,12(sp)
  2c:	00412823          	sw	tp,16(sp)
  30:	00512a23          	sw	t0,20(sp)
  34:	00612c23          	sw	t1,24(sp)
  38:	00712e23          	sw	t2,28(sp)
  3c:	02812023          	sw	s0,32(sp)
  40:	02912223          	sw	s1,36(sp)
  44:	02a12423          	sw	a0,40(sp)
  48:	02b12623          	sw	a1,44(sp)
  4c:	02c12823          	sw	a2,48(sp)
  50:	02d12a23          	sw	a3,52(sp)
  54:	02e12c23          	sw	a4,56(sp)
  58:	02f12e23          	sw	a5,60(sp)
  5c:	05012023          	sw	a6,64(sp)
  60:	05112223          	sw	a7,68(sp)
  64:	05212423          	sw	s2,72(sp)
  68:	05312623          	sw	s3,76(sp)
  6c:	05412823          	sw	s4,80(sp)
  70:	05512a23          	sw	s5,84(sp)
  74:	05612c23          	sw	s6,88(sp)
  78:	05712e23          	sw	s7,92(sp)
  7c:	07812023          	sw	s8,96(sp)
  80:	07912223          	sw	s9,100(sp)
  84:	07a12423          	sw	s10,104(sp)
  88:	07b12623          	sw	s11,108(sp)
  8c:	07c12823          	sw	t3,112(sp)
  90:	07d12a23          	sw	t4,116(sp)
  94:	07e12c23          	sw	t5,120(sp)
  98:	07f12e23          	sw	t6,124(sp)
  9c:	34202573          	csrr	a0,mcause
  a0:	341025f3          	csrr	a1,mepc
  a4:	00010613          	mv	a2,sp
  a8:	105000ef          	jal	ra,9ac <handle_trap>
  ac:	34151073          	csrw	mepc,a0
  b0:	00412083          	lw	ra,4(sp)
  b4:	00812103          	lw	sp,8(sp)
  b8:	00c12183          	lw	gp,12(sp)
  bc:	01012203          	lw	tp,16(sp)
  c0:	01412283          	lw	t0,20(sp)
  c4:	01812303          	lw	t1,24(sp)
  c8:	01c12383          	lw	t2,28(sp)
  cc:	02012403          	lw	s0,32(sp)
  d0:	02412483          	lw	s1,36(sp)
  d4:	02812503          	lw	a0,40(sp)
  d8:	02c12583          	lw	a1,44(sp)
  dc:	03012603          	lw	a2,48(sp)
  e0:	03412683          	lw	a3,52(sp)
  e4:	03812703          	lw	a4,56(sp)
  e8:	03c12783          	lw	a5,60(sp)
  ec:	04012803          	lw	a6,64(sp)
  f0:	04412883          	lw	a7,68(sp)
  f4:	04812903          	lw	s2,72(sp)
  f8:	04c12983          	lw	s3,76(sp)
  fc:	05012a03          	lw	s4,80(sp)
 100:	05412a83          	lw	s5,84(sp)
 104:	05812b03          	lw	s6,88(sp)
 108:	05c12b83          	lw	s7,92(sp)
 10c:	06012c03          	lw	s8,96(sp)
 110:	06412c83          	lw	s9,100(sp)
 114:	06812d03          	lw	s10,104(sp)
 118:	06c12d83          	lw	s11,108(sp)
 11c:	07012e03          	lw	t3,112(sp)
 120:	07412e83          	lw	t4,116(sp)
 124:	07812f03          	lw	t5,120(sp)
 128:	07c12f83          	lw	t6,124(sp)
 12c:	08010113          	addi	sp,sp,128
 130:	30200073          	mret
 134:	0000                	unimp
 136:	0000                	unimp

00000138 <index_to_mask>:
 138:	fe010113          	addi	sp,sp,-32
 13c:	00812e23          	sw	s0,28(sp)
 140:	02010413          	addi	s0,sp,32
 144:	fea42623          	sw	a0,-20(s0)
 148:	fec42783          	lw	a5,-20(s0)
 14c:	00100713          	li	a4,1
 150:	00f717b3          	sll	a5,a4,a5
 154:	00078513          	mv	a0,a5
 158:	01c12403          	lw	s0,28(sp)
 15c:	02010113          	addi	sp,sp,32
 160:	00008067          	ret

00000164 <mem_write32>:
 164:	fe010113          	addi	sp,sp,-32
 168:	00812e23          	sw	s0,28(sp)
 16c:	02010413          	addi	s0,sp,32
 170:	fea42623          	sw	a0,-20(s0)
 174:	feb42423          	sw	a1,-24(s0)
 178:	fec42223          	sw	a2,-28(s0)
 17c:	fe842783          	lw	a5,-24(s0)
 180:	ffc7f713          	andi	a4,a5,-4
 184:	fec42783          	lw	a5,-20(s0)
 188:	00f707b3          	add	a5,a4,a5
 18c:	00078713          	mv	a4,a5
 190:	fe442783          	lw	a5,-28(s0)
 194:	00f72023          	sw	a5,0(a4)
 198:	00000013          	nop
 19c:	01c12403          	lw	s0,28(sp)
 1a0:	02010113          	addi	sp,sp,32
 1a4:	00008067          	ret

000001a8 <gpio_masked_bit_write>:
 1a8:	fd010113          	addi	sp,sp,-48
 1ac:	02112623          	sw	ra,44(sp)
 1b0:	02812423          	sw	s0,40(sp)
 1b4:	03010413          	addi	s0,sp,48
 1b8:	fca42e23          	sw	a0,-36(s0)
 1bc:	fcb42c23          	sw	a1,-40(s0)
 1c0:	fcc42a23          	sw	a2,-44(s0)
 1c4:	fcd42823          	sw	a3,-48(s0)
 1c8:	fd442703          	lw	a4,-44(s0)
 1cc:	000107b7          	lui	a5,0x10
 1d0:	fff78793          	addi	a5,a5,-1 # ffff <_etext+0xf52f>
 1d4:	00f777b3          	and	a5,a4,a5
 1d8:	fef42623          	sw	a5,-20(s0)
 1dc:	fd442703          	lw	a4,-44(s0)
 1e0:	ffff07b7          	lui	a5,0xffff0
 1e4:	00f777b3          	and	a5,a4,a5
 1e8:	fef42423          	sw	a5,-24(s0)
 1ec:	fec42783          	lw	a5,-20(s0)
 1f0:	02078863          	beqz	a5,220 <gpio_masked_bit_write+0x78>
 1f4:	fec42783          	lw	a5,-20(s0)
 1f8:	01079713          	slli	a4,a5,0x10
 1fc:	fd042683          	lw	a3,-48(s0)
 200:	000107b7          	lui	a5,0x10
 204:	fff78793          	addi	a5,a5,-1 # ffff <_etext+0xf52f>
 208:	00f6f7b3          	and	a5,a3,a5
 20c:	00f767b3          	or	a5,a4,a5
 210:	00078613          	mv	a2,a5
 214:	fdc42583          	lw	a1,-36(s0)
 218:	400c0537          	lui	a0,0x400c0
 21c:	f49ff0ef          	jal	ra,164 <mem_write32>
 220:	fe842783          	lw	a5,-24(s0)
 224:	02078263          	beqz	a5,248 <gpio_masked_bit_write+0xa0>
 228:	fd042783          	lw	a5,-48(s0)
 22c:	0107d713          	srli	a4,a5,0x10
 230:	fe842783          	lw	a5,-24(s0)
 234:	00f767b3          	or	a5,a4,a5
 238:	00078613          	mv	a2,a5
 23c:	fd842583          	lw	a1,-40(s0)
 240:	400c0537          	lui	a0,0x400c0
 244:	f21ff0ef          	jal	ra,164 <mem_write32>
 248:	00000013          	nop
 24c:	02c12083          	lw	ra,44(sp)
 250:	02812403          	lw	s0,40(sp)
 254:	03010113          	addi	sp,sp,48
 258:	00008067          	ret

0000025c <gpio_masked_write>:
 25c:	fe010113          	addi	sp,sp,-32
 260:	00112e23          	sw	ra,28(sp)
 264:	00812c23          	sw	s0,24(sp)
 268:	02010413          	addi	s0,sp,32
 26c:	fea42623          	sw	a0,-20(s0)
 270:	feb42423          	sw	a1,-24(s0)
 274:	fe842783          	lw	a5,-24(s0)
 278:	00078693          	mv	a3,a5
 27c:	000107b7          	lui	a5,0x10
 280:	fff78613          	addi	a2,a5,-1 # ffff <_etext+0xf52f>
 284:	01800593          	li	a1,24
 288:	01400513          	li	a0,20
 28c:	f1dff0ef          	jal	ra,1a8 <gpio_masked_bit_write>
 290:	00000013          	nop
 294:	01c12083          	lw	ra,28(sp)
 298:	01812403          	lw	s0,24(sp)
 29c:	02010113          	addi	sp,sp,32
 2a0:	00008067          	ret

000002a4 <read_word>:
 2a4:	fe010113          	addi	sp,sp,-32
 2a8:	00812e23          	sw	s0,28(sp)
 2ac:	02010413          	addi	s0,sp,32
 2b0:	fea42623          	sw	a0,-20(s0)
 2b4:	fec42783          	lw	a5,-20(s0)
 2b8:	0007a783          	lw	a5,0(a5)
 2bc:	00078513          	mv	a0,a5
 2c0:	01c12403          	lw	s0,28(sp)
 2c4:	02010113          	addi	sp,sp,32
 2c8:	00008067          	ret

000002cc <mem_read32>:
 2cc:	fe010113          	addi	sp,sp,-32
 2d0:	00812e23          	sw	s0,28(sp)
 2d4:	02010413          	addi	s0,sp,32
 2d8:	fea42623          	sw	a0,-20(s0)
 2dc:	feb42423          	sw	a1,-24(s0)
 2e0:	fe842783          	lw	a5,-24(s0)
 2e4:	ffc7f713          	andi	a4,a5,-4
 2e8:	fec42783          	lw	a5,-20(s0)
 2ec:	00f707b3          	add	a5,a4,a5
 2f0:	0007a783          	lw	a5,0(a5)
 2f4:	00078513          	mv	a0,a5
 2f8:	01c12403          	lw	s0,28(sp)
 2fc:	02010113          	addi	sp,sp,32
 300:	00008067          	ret

00000304 <bitfield_bit32_to_field32>:
 304:	fd010113          	addi	sp,sp,-48
 308:	02812623          	sw	s0,44(sp)
 30c:	03010413          	addi	s0,sp,48
 310:	fca42e23          	sw	a0,-36(s0)
 314:	00100793          	li	a5,1
 318:	fef42423          	sw	a5,-24(s0)
 31c:	fdc42783          	lw	a5,-36(s0)
 320:	fef42623          	sw	a5,-20(s0)
 324:	fe842703          	lw	a4,-24(s0)
 328:	fec42783          	lw	a5,-20(s0)
 32c:	00070613          	mv	a2,a4
 330:	00078693          	mv	a3,a5
 334:	00060713          	mv	a4,a2
 338:	00068793          	mv	a5,a3
 33c:	00070513          	mv	a0,a4
 340:	00078593          	mv	a1,a5
 344:	02c12403          	lw	s0,44(sp)
 348:	03010113          	addi	sp,sp,48
 34c:	00008067          	ret

00000350 <bitfield_field32_write>:
 350:	fe010113          	addi	sp,sp,-32
 354:	00812e23          	sw	s0,28(sp)
 358:	02010413          	addi	s0,sp,32
 35c:	fea42623          	sw	a0,-20(s0)
 360:	feb42223          	sw	a1,-28(s0)
 364:	fec42423          	sw	a2,-24(s0)
 368:	fed42023          	sw	a3,-32(s0)
 36c:	fe442703          	lw	a4,-28(s0)
 370:	fe842783          	lw	a5,-24(s0)
 374:	00f717b3          	sll	a5,a4,a5
 378:	fff7c793          	not	a5,a5
 37c:	fec42703          	lw	a4,-20(s0)
 380:	00f777b3          	and	a5,a4,a5
 384:	fef42623          	sw	a5,-20(s0)
 388:	fe442703          	lw	a4,-28(s0)
 38c:	fe042783          	lw	a5,-32(s0)
 390:	00f77733          	and	a4,a4,a5
 394:	fe842783          	lw	a5,-24(s0)
 398:	00f717b3          	sll	a5,a4,a5
 39c:	fec42703          	lw	a4,-20(s0)
 3a0:	00f767b3          	or	a5,a4,a5
 3a4:	fef42623          	sw	a5,-20(s0)
 3a8:	fec42783          	lw	a5,-20(s0)
 3ac:	00078513          	mv	a0,a5
 3b0:	01c12403          	lw	s0,28(sp)
 3b4:	02010113          	addi	sp,sp,32
 3b8:	00008067          	ret

000003bc <bitfield_bit32_write>:
 3bc:	fd010113          	addi	sp,sp,-48
 3c0:	02112623          	sw	ra,44(sp)
 3c4:	02812423          	sw	s0,40(sp)
 3c8:	03010413          	addi	s0,sp,48
 3cc:	fca42e23          	sw	a0,-36(s0)
 3d0:	fcb42c23          	sw	a1,-40(s0)
 3d4:	00060793          	mv	a5,a2
 3d8:	fcf40ba3          	sb	a5,-41(s0)
 3dc:	fd842503          	lw	a0,-40(s0)
 3e0:	f25ff0ef          	jal	ra,304 <bitfield_bit32_to_field32>
 3e4:	00050713          	mv	a4,a0
 3e8:	00058793          	mv	a5,a1
 3ec:	fee42423          	sw	a4,-24(s0)
 3f0:	fef42623          	sw	a5,-20(s0)
 3f4:	fd744783          	lbu	a5,-41(s0)
 3f8:	00078663          	beqz	a5,404 <bitfield_bit32_write+0x48>
 3fc:	00100793          	li	a5,1
 400:	0080006f          	j	408 <bitfield_bit32_write+0x4c>
 404:	00000793          	li	a5,0
 408:	00078693          	mv	a3,a5
 40c:	fe842583          	lw	a1,-24(s0)
 410:	fec42603          	lw	a2,-20(s0)
 414:	fdc42503          	lw	a0,-36(s0)
 418:	f39ff0ef          	jal	ra,350 <bitfield_field32_write>
 41c:	00050793          	mv	a5,a0
 420:	00078513          	mv	a0,a5
 424:	02c12083          	lw	ra,44(sp)
 428:	02812403          	lw	s0,40(sp)
 42c:	03010113          	addi	sp,sp,48
 430:	00008067          	ret

00000434 <plic_priority_reg_offset>:
 434:	fd010113          	addi	sp,sp,-48
 438:	02812623          	sw	s0,44(sp)
 43c:	03010413          	addi	s0,sp,48
 440:	fca42e23          	sw	a0,-36(s0)
 444:	fdc42783          	lw	a5,-36(s0)
 448:	00279793          	slli	a5,a5,0x2
 44c:	fef42623          	sw	a5,-20(s0)
 450:	fec42783          	lw	a5,-20(s0)
 454:	00878793          	addi	a5,a5,8
 458:	00078513          	mv	a0,a5
 45c:	02c12403          	lw	s0,44(sp)
 460:	03010113          	addi	sp,sp,48
 464:	00008067          	ret

00000468 <interrupt_complete>:
 468:	fd010113          	addi	sp,sp,-48
 46c:	02812623          	sw	s0,44(sp)
 470:	03010413          	addi	s0,sp,48
 474:	fca42e23          	sw	a0,-36(s0)
 478:	400507b7          	lui	a5,0x40050
 47c:	10878793          	addi	a5,a5,264 # 40050108 <__stack_top+0x3004f108>
 480:	fef42623          	sw	a5,-20(s0)
 484:	fec42783          	lw	a5,-20(s0)
 488:	fdc42703          	lw	a4,-36(s0)
 48c:	00e7a023          	sw	a4,0(a5)
 490:	07c18713          	addi	a4,gp,124 # 1000007c <hart0_interrupt_matrix>
 494:	fdc42783          	lw	a5,-36(s0)
 498:	00479793          	slli	a5,a5,0x4
 49c:	00f707b3          	add	a5,a4,a5
 4a0:	00200713          	li	a4,2
 4a4:	00e7a423          	sw	a4,8(a5)
 4a8:	07c18713          	addi	a4,gp,124 # 1000007c <hart0_interrupt_matrix>
 4ac:	fdc42783          	lw	a5,-36(s0)
 4b0:	00479793          	slli	a5,a5,0x4
 4b4:	00f707b3          	add	a5,a4,a5
 4b8:	00c7a783          	lw	a5,12(a5)
 4bc:	00178713          	addi	a4,a5,1
 4c0:	07c18693          	addi	a3,gp,124 # 1000007c <hart0_interrupt_matrix>
 4c4:	fdc42783          	lw	a5,-36(s0)
 4c8:	00479793          	slli	a5,a5,0x4
 4cc:	00f687b3          	add	a5,a3,a5
 4d0:	00e7a623          	sw	a4,12(a5)
 4d4:	00000013          	nop
 4d8:	02c12403          	lw	s0,44(sp)
 4dc:	03010113          	addi	sp,sp,48
 4e0:	00008067          	ret

000004e4 <interrupt_claim_request>:
 4e4:	fe010113          	addi	sp,sp,-32
 4e8:	00812e23          	sw	s0,28(sp)
 4ec:	02010413          	addi	s0,sp,32
 4f0:	fe042623          	sw	zero,-20(s0)
 4f4:	400507b7          	lui	a5,0x40050
 4f8:	10878793          	addi	a5,a5,264 # 40050108 <__stack_top+0x3004f108>
 4fc:	fef42623          	sw	a5,-20(s0)
 500:	fec42783          	lw	a5,-20(s0)
 504:	0007a783          	lw	a5,0(a5)
 508:	fef42423          	sw	a5,-24(s0)
 50c:	fe842783          	lw	a5,-24(s0)
 510:	00078513          	mv	a0,a5
 514:	01c12403          	lw	s0,28(sp)
 518:	02010113          	addi	sp,sp,32
 51c:	00008067          	ret

00000520 <mach_plic_handler>:
 520:	fd010113          	addi	sp,sp,-48
 524:	02112623          	sw	ra,44(sp)
 528:	02812423          	sw	s0,40(sp)
 52c:	03010413          	addi	s0,sp,48
 530:	fca42e23          	sw	a0,-36(s0)
 534:	fcb42c23          	sw	a1,-40(s0)
 538:	fadff0ef          	jal	ra,4e4 <interrupt_claim_request>
 53c:	fea42623          	sw	a0,-20(s0)
 540:	07c18713          	addi	a4,gp,124 # 1000007c <hart0_interrupt_matrix>
 544:	fec42783          	lw	a5,-20(s0)
 548:	00479793          	slli	a5,a5,0x4
 54c:	00f707b3          	add	a5,a4,a5
 550:	00100713          	li	a4,1
 554:	00e7a423          	sw	a4,8(a5)
 558:	00018713          	mv	a4,gp
 55c:	fec42783          	lw	a5,-20(s0)
 560:	00279793          	slli	a5,a5,0x2
 564:	00f707b3          	add	a5,a4,a5
 568:	0007a783          	lw	a5,0(a5)
 56c:	fec42503          	lw	a0,-20(s0)
 570:	000780e7          	jalr	a5
 574:	fec42503          	lw	a0,-20(s0)
 578:	ef1ff0ef          	jal	ra,468 <interrupt_complete>
 57c:	00000013          	nop
 580:	02c12083          	lw	ra,44(sp)
 584:	02812403          	lw	s0,40(sp)
 588:	03010113          	addi	sp,sp,48
 58c:	00008067          	ret

00000590 <interrupt_enable>:
 590:	fd010113          	addi	sp,sp,-48
 594:	02812623          	sw	s0,44(sp)
 598:	03010413          	addi	s0,sp,48
 59c:	fca42e23          	sw	a0,-36(s0)
 5a0:	fe0407a3          	sb	zero,-17(s0)
 5a4:	400507b7          	lui	a5,0x40050
 5a8:	10078793          	addi	a5,a5,256 # 40050100 <__stack_top+0x3004f100>
 5ac:	fef42423          	sw	a5,-24(s0)
 5b0:	fdc42783          	lw	a5,-36(s0)
 5b4:	00100713          	li	a4,1
 5b8:	00f717b3          	sll	a5,a4,a5
 5bc:	0ff7f713          	andi	a4,a5,255
 5c0:	fe842783          	lw	a5,-24(s0)
 5c4:	00e78023          	sb	a4,0(a5)
 5c8:	00000013          	nop
 5cc:	02c12403          	lw	s0,44(sp)
 5d0:	03010113          	addi	sp,sp,48
 5d4:	00008067          	ret

000005d8 <interrupt_disable>:
 5d8:	fd010113          	addi	sp,sp,-48
 5dc:	02812623          	sw	s0,44(sp)
 5e0:	03010413          	addi	s0,sp,48
 5e4:	fca42e23          	sw	a0,-36(s0)
 5e8:	fe042623          	sw	zero,-20(s0)
 5ec:	400507b7          	lui	a5,0x40050
 5f0:	10078793          	addi	a5,a5,256 # 40050100 <__stack_top+0x3004f100>
 5f4:	fef42623          	sw	a5,-20(s0)
 5f8:	fec42783          	lw	a5,-20(s0)
 5fc:	00078023          	sb	zero,0(a5)
 600:	07c18713          	addi	a4,gp,124 # 1000007c <hart0_interrupt_matrix>
 604:	fdc42783          	lw	a5,-36(s0)
 608:	00479793          	slli	a5,a5,0x4
 60c:	00f707b3          	add	a5,a4,a5
 610:	0007a423          	sw	zero,8(a5)
 614:	00000013          	nop
 618:	02c12403          	lw	s0,44(sp)
 61c:	03010113          	addi	sp,sp,48
 620:	00008067          	ret

00000624 <plic_set_priority>:
 624:	fd010113          	addi	sp,sp,-48
 628:	02112623          	sw	ra,44(sp)
 62c:	02812423          	sw	s0,40(sp)
 630:	03010413          	addi	s0,sp,48
 634:	fca42e23          	sw	a0,-36(s0)
 638:	fcb42c23          	sw	a1,-40(s0)
 63c:	fdc42783          	lw	a5,-36(s0)
 640:	00078513          	mv	a0,a5
 644:	df1ff0ef          	jal	ra,434 <plic_priority_reg_offset>
 648:	fea42623          	sw	a0,-20(s0)
 64c:	fec42783          	lw	a5,-20(s0)
 650:	fd842603          	lw	a2,-40(s0)
 654:	00078593          	mv	a1,a5
 658:	40050537          	lui	a0,0x40050
 65c:	b09ff0ef          	jal	ra,164 <mem_write32>
 660:	00000013          	nop
 664:	02c12083          	lw	ra,44(sp)
 668:	02812403          	lw	s0,40(sp)
 66c:	03010113          	addi	sp,sp,48
 670:	00008067          	ret

00000674 <plic_set_threshold>:
 674:	fe010113          	addi	sp,sp,-32
 678:	00112e23          	sw	ra,28(sp)
 67c:	00812c23          	sw	s0,24(sp)
 680:	02010413          	addi	s0,sp,32
 684:	fea42623          	sw	a0,-20(s0)
 688:	fec42603          	lw	a2,-20(s0)
 68c:	10400593          	li	a1,260
 690:	40050537          	lui	a0,0x40050
 694:	ad1ff0ef          	jal	ra,164 <mem_write32>
 698:	00000013          	nop
 69c:	01c12083          	lw	ra,28(sp)
 6a0:	01812403          	lw	s0,24(sp)
 6a4:	02010113          	addi	sp,sp,32
 6a8:	00008067          	ret

000006ac <plic_enable_interrupt>:
 6ac:	fe010113          	addi	sp,sp,-32
 6b0:	00112e23          	sw	ra,28(sp)
 6b4:	00812c23          	sw	s0,24(sp)
 6b8:	02010413          	addi	s0,sp,32
 6bc:	fea42623          	sw	a0,-20(s0)
 6c0:	feb42423          	sw	a1,-24(s0)
 6c4:	fe842603          	lw	a2,-24(s0)
 6c8:	10000593          	li	a1,256
 6cc:	40050537          	lui	a0,0x40050
 6d0:	a95ff0ef          	jal	ra,164 <mem_write32>
 6d4:	00000013          	nop
 6d8:	01c12083          	lw	ra,28(sp)
 6dc:	01812403          	lw	s0,24(sp)
 6e0:	02010113          	addi	sp,sp,32
 6e4:	00008067          	ret

000006e8 <plic_set_trigger_type>:
 6e8:	fe010113          	addi	sp,sp,-32
 6ec:	00112e23          	sw	ra,28(sp)
 6f0:	00812c23          	sw	s0,24(sp)
 6f4:	02010413          	addi	s0,sp,32
 6f8:	00050793          	mv	a5,a0
 6fc:	fef407a3          	sb	a5,-17(s0)
 700:	fef44783          	lbu	a5,-17(s0)
 704:	00078613          	mv	a2,a5
 708:	00400593          	li	a1,4
 70c:	40050537          	lui	a0,0x40050
 710:	a55ff0ef          	jal	ra,164 <mem_write32>
 714:	00000013          	nop
 718:	01c12083          	lw	ra,28(sp)
 71c:	01812403          	lw	s0,24(sp)
 720:	02010113          	addi	sp,sp,32
 724:	00008067          	ret

00000728 <plic_offset_from_reg0>:
 728:	fd010113          	addi	sp,sp,-48
 72c:	02812623          	sw	s0,44(sp)
 730:	03010413          	addi	s0,sp,48
 734:	fca42e23          	sw	a0,-36(s0)
 738:	fdc42783          	lw	a5,-36(s0)
 73c:	0057d793          	srli	a5,a5,0x5
 740:	fef407a3          	sb	a5,-17(s0)
 744:	fef44783          	lbu	a5,-17(s0)
 748:	00279793          	slli	a5,a5,0x2
 74c:	00078513          	mv	a0,a5
 750:	02c12403          	lw	s0,44(sp)
 754:	03010113          	addi	sp,sp,48
 758:	00008067          	ret

0000075c <plic_irq_bit_index>:
 75c:	fe010113          	addi	sp,sp,-32
 760:	00812e23          	sw	s0,28(sp)
 764:	02010413          	addi	s0,sp,32
 768:	fea42623          	sw	a0,-20(s0)
 76c:	fec42783          	lw	a5,-20(s0)
 770:	0ff7f793          	andi	a5,a5,255
 774:	01f7f793          	andi	a5,a5,31
 778:	0ff7f793          	andi	a5,a5,255
 77c:	00078513          	mv	a0,a5
 780:	01c12403          	lw	s0,28(sp)
 784:	02010113          	addi	sp,sp,32
 788:	00008067          	ret

0000078c <plic_irq_enable_reg_info>:
 78c:	fb010113          	addi	sp,sp,-80
 790:	04112623          	sw	ra,76(sp)
 794:	04812423          	sw	s0,72(sp)
 798:	04912223          	sw	s1,68(sp)
 79c:	05212023          	sw	s2,64(sp)
 7a0:	03312e23          	sw	s3,60(sp)
 7a4:	05010413          	addi	s0,sp,80
 7a8:	faa42e23          	sw	a0,-68(s0)
 7ac:	fbc42503          	lw	a0,-68(s0)
 7b0:	f79ff0ef          	jal	ra,728 <plic_offset_from_reg0>
 7b4:	fca42e23          	sw	a0,-36(s0)
 7b8:	fdc42783          	lw	a5,-36(s0)
 7bc:	10078493          	addi	s1,a5,256
 7c0:	fbc42503          	lw	a0,-68(s0)
 7c4:	f99ff0ef          	jal	ra,75c <plic_irq_bit_index>
 7c8:	00050793          	mv	a5,a0
 7cc:	fc942a23          	sw	s1,-44(s0)
 7d0:	fcf42c23          	sw	a5,-40(s0)
 7d4:	fd442703          	lw	a4,-44(s0)
 7d8:	fd842783          	lw	a5,-40(s0)
 7dc:	00070913          	mv	s2,a4
 7e0:	00078993          	mv	s3,a5
 7e4:	00090713          	mv	a4,s2
 7e8:	00098793          	mv	a5,s3
 7ec:	00070513          	mv	a0,a4
 7f0:	00078593          	mv	a1,a5
 7f4:	04c12083          	lw	ra,76(sp)
 7f8:	04812403          	lw	s0,72(sp)
 7fc:	04412483          	lw	s1,68(sp)
 800:	04012903          	lw	s2,64(sp)
 804:	03c12983          	lw	s3,60(sp)
 808:	05010113          	addi	sp,sp,80
 80c:	00008067          	ret

00000810 <plic_irq_set_enabled>:
 810:	fd010113          	addi	sp,sp,-48
 814:	02112623          	sw	ra,44(sp)
 818:	02812423          	sw	s0,40(sp)
 81c:	03010413          	addi	s0,sp,48
 820:	fca42e23          	sw	a0,-36(s0)
 824:	00058793          	mv	a5,a1
 828:	fcf40da3          	sb	a5,-37(s0)
 82c:	fdc42503          	lw	a0,-36(s0)
 830:	f5dff0ef          	jal	ra,78c <plic_irq_enable_reg_info>
 834:	00050713          	mv	a4,a0
 838:	00058793          	mv	a5,a1
 83c:	fee42023          	sw	a4,-32(s0)
 840:	fef42223          	sw	a5,-28(s0)
 844:	fdc42783          	lw	a5,-36(s0)
 848:	0ff7f793          	andi	a5,a5,255
 84c:	01f7f793          	andi	a5,a5,31
 850:	fef407a3          	sb	a5,-17(s0)
 854:	fe442783          	lw	a5,-28(s0)
 858:	fdb44703          	lbu	a4,-37(s0)
 85c:	00070613          	mv	a2,a4
 860:	00078593          	mv	a1,a5
 864:	fe842503          	lw	a0,-24(s0)
 868:	b55ff0ef          	jal	ra,3bc <bitfield_bit32_write>
 86c:	fea42423          	sw	a0,-24(s0)
 870:	fdb44703          	lbu	a4,-37(s0)
 874:	fdc42783          	lw	a5,-36(s0)
 878:	00f717b3          	sll	a5,a4,a5
 87c:	fef42423          	sw	a5,-24(s0)
 880:	fe842603          	lw	a2,-24(s0)
 884:	10000593          	li	a1,256
 888:	40050537          	lui	a0,0x40050
 88c:	8d9ff0ef          	jal	ra,164 <mem_write32>
 890:	00000013          	nop
 894:	02c12083          	lw	ra,44(sp)
 898:	02812403          	lw	s0,40(sp)
 89c:	03010113          	addi	sp,sp,48
 8a0:	00008067          	ret

000008a4 <isr_default>:
 8a4:	fe010113          	addi	sp,sp,-32
 8a8:	00812e23          	sw	s0,28(sp)
 8ac:	02010413          	addi	s0,sp,32
 8b0:	fea42623          	sw	a0,-20(s0)
 8b4:	00000013          	nop
 8b8:	01c12403          	lw	s0,28(sp)
 8bc:	02010113          	addi	sp,sp,32
 8c0:	00008067          	ret

000008c4 <configure_interrupt>:
 8c4:	fe010113          	addi	sp,sp,-32
 8c8:	00112e23          	sw	ra,28(sp)
 8cc:	00812c23          	sw	s0,24(sp)
 8d0:	02010413          	addi	s0,sp,32
 8d4:	fea42623          	sw	a0,-20(s0)
 8d8:	fec42503          	lw	a0,-20(s0)
 8dc:	cb5ff0ef          	jal	ra,590 <interrupt_enable>
 8e0:	00000013          	nop
 8e4:	01c12083          	lw	ra,28(sp)
 8e8:	01812403          	lw	s0,24(sp)
 8ec:	02010113          	addi	sp,sp,32
 8f0:	00008067          	ret

000008f4 <trap_init>:
 8f4:	ff010113          	addi	sp,sp,-16
 8f8:	00812623          	sw	s0,12(sp)
 8fc:	01010413          	addi	s0,sp,16
 900:	27418793          	addi	a5,gp,628 # 10000274 <mcause_interrupt_table>
 904:	00000717          	auipc	a4,0x0
 908:	c1c70713          	addi	a4,a4,-996 # 520 <mach_plic_handler>
 90c:	00e7a023          	sw	a4,0(a5)
 910:	26c18793          	addi	a5,gp,620 # 1000026c <mcause_trap_table>
 914:	00000717          	auipc	a4,0x0
 918:	08070713          	addi	a4,a4,128 # 994 <default_handler>
 91c:	00e7a023          	sw	a4,0(a5)
 920:	00000013          	nop
 924:	00c12403          	lw	s0,12(sp)
 928:	01010113          	addi	sp,sp,16
 92c:	00008067          	ret

00000930 <init>:
 930:	ff010113          	addi	sp,sp,-16
 934:	00112623          	sw	ra,12(sp)
 938:	00812423          	sw	s0,8(sp)
 93c:	01010413          	addi	s0,sp,16
 940:	fb5ff0ef          	jal	ra,8f4 <trap_init>
 944:	114000ef          	jal	ra,a58 <main>
 948:	00000013          	nop
 94c:	00c12083          	lw	ra,12(sp)
 950:	00812403          	lw	s0,8(sp)
 954:	01010113          	addi	sp,sp,16
 958:	00008067          	ret

0000095c <extract_ie_code>:
 95c:	fd010113          	addi	sp,sp,-48
 960:	02812623          	sw	s0,44(sp)
 964:	03010413          	addi	s0,sp,48
 968:	fca42e23          	sw	a0,-36(s0)
 96c:	fdc42703          	lw	a4,-36(s0)
 970:	800007b7          	lui	a5,0x80000
 974:	fff7c793          	not	a5,a5
 978:	00f777b3          	and	a5,a4,a5
 97c:	fef42623          	sw	a5,-20(s0)
 980:	fec42783          	lw	a5,-20(s0)
 984:	00078513          	mv	a0,a5
 988:	02c12403          	lw	s0,44(sp)
 98c:	03010113          	addi	sp,sp,48
 990:	00008067          	ret

00000994 <default_handler>:
 994:	fe010113          	addi	sp,sp,-32
 998:	00812e23          	sw	s0,28(sp)
 99c:	02010413          	addi	s0,sp,32
 9a0:	fea42623          	sw	a0,-20(s0)
 9a4:	feb42423          	sw	a1,-24(s0)
 9a8:	0000006f          	j	9a8 <default_handler+0x14>

000009ac <handle_trap>:
 9ac:	fd010113          	addi	sp,sp,-48
 9b0:	02112623          	sw	ra,44(sp)
 9b4:	02812423          	sw	s0,40(sp)
 9b8:	03010413          	addi	s0,sp,48
 9bc:	fca42e23          	sw	a0,-36(s0)
 9c0:	fcb42c23          	sw	a1,-40(s0)
 9c4:	fe042623          	sw	zero,-20(s0)
 9c8:	fe042423          	sw	zero,-24(s0)
 9cc:	01f00793          	li	a5,31
 9d0:	fef42423          	sw	a5,-24(s0)
 9d4:	fe842783          	lw	a5,-24(s0)
 9d8:	00100713          	li	a4,1
 9dc:	00f717b3          	sll	a5,a4,a5
 9e0:	00078713          	mv	a4,a5
 9e4:	fdc42783          	lw	a5,-36(s0)
 9e8:	00f777b3          	and	a5,a4,a5
 9ec:	02078a63          	beqz	a5,a20 <handle_trap+0x74>
 9f0:	fdc42503          	lw	a0,-36(s0)
 9f4:	f69ff0ef          	jal	ra,95c <extract_ie_code>
 9f8:	fea42623          	sw	a0,-20(s0)
 9fc:	27418713          	addi	a4,gp,628 # 10000274 <mcause_interrupt_table>
 a00:	fec42783          	lw	a5,-20(s0)
 a04:	00279793          	slli	a5,a5,0x2
 a08:	00f707b3          	add	a5,a4,a5
 a0c:	0007a783          	lw	a5,0(a5) # 80000000 <__stack_top+0x6ffff000>
 a10:	fd842583          	lw	a1,-40(s0)
 a14:	fdc42503          	lw	a0,-36(s0)
 a18:	000780e7          	jalr	a5
 a1c:	0240006f          	j	a40 <handle_trap+0x94>
 a20:	26c18713          	addi	a4,gp,620 # 1000026c <mcause_trap_table>
 a24:	fdc42783          	lw	a5,-36(s0)
 a28:	00279793          	slli	a5,a5,0x2
 a2c:	00f707b3          	add	a5,a4,a5
 a30:	0007a783          	lw	a5,0(a5)
 a34:	fd842583          	lw	a1,-40(s0)
 a38:	fdc42503          	lw	a0,-36(s0)
 a3c:	000780e7          	jalr	a5
 a40:	fd842783          	lw	a5,-40(s0)
 a44:	00078513          	mv	a0,a5
 a48:	02c12083          	lw	ra,44(sp)
 a4c:	02812403          	lw	s0,40(sp)
 a50:	03010113          	addi	sp,sp,48
 a54:	00008067          	ret

00000a58 <main>:
 a58:	fe010113          	addi	sp,sp,-32
 a5c:	00112e23          	sw	ra,28(sp)
 a60:	00812c23          	sw	s0,24(sp)
 a64:	02010413          	addi	s0,sp,32
 a68:	400c07b7          	lui	a5,0x400c0
 a6c:	00478793          	addi	a5,a5,4 # 400c0004 <__stack_top+0x300bf004>
 a70:	fef42623          	sw	a5,-20(s0)
 a74:	fec42783          	lw	a5,-20(s0)
 a78:	00800713          	li	a4,8
 a7c:	00e7a023          	sw	a4,0(a5)
 a80:	400c07b7          	lui	a5,0x400c0
 a84:	03078793          	addi	a5,a5,48 # 400c0030 <__stack_top+0x300bf030>
 a88:	fef42423          	sw	a5,-24(s0)
 a8c:	fe842783          	lw	a5,-24(s0)
 a90:	00800713          	li	a4,8
 a94:	00e7a023          	sw	a4,0(a5)
 a98:	00200513          	li	a0,2
 a9c:	bd9ff0ef          	jal	ra,674 <plic_set_threshold>
 aa0:	00300593          	li	a1,3
 aa4:	00300513          	li	a0,3
 aa8:	b7dff0ef          	jal	ra,624 <plic_set_priority>
 aac:	00100593          	li	a1,1
 ab0:	00300513          	li	a0,3
 ab4:	d5dff0ef          	jal	ra,810 <plic_irq_set_enabled>
 ab8:	00000793          	li	a5,0
 abc:	00078513          	mv	a0,a5
 ac0:	01c12083          	lw	ra,28(sp)
 ac4:	01812403          	lw	s0,24(sp)
 ac8:	02010113          	addi	sp,sp,32
 acc:	00008067          	ret
