
softwares/plic_test/output/plic_test.merl:     file format elf32-littleriscv


Disassembly of section .init:

00000000 <_start>:
   0:	10000197          	auipc	gp,0x10000
   4:	00018193          	mv	gp,gp
   8:	10001117          	auipc	sp,0x10001
   c:	ff810113          	addi	sp,sp,-8 # 10001000 <__stack_top>
  10:	00010433          	add	s0,sp,zero
  14:	75c0006f          	j	770 <main>

Disassembly of section .text:

00000018 <_stext>:
  18:	f8010113          	addi	sp,sp,-128
  1c:	00000013          	nop
  20:	00112223          	sw	ra,4(sp)
  24:	00212423          	sw	sp,8(sp)
  28:	00312623          	sw	gp,12(sp)
  2c:	00412823          	sw	tp,16(sp)
  30:	00512a23          	sw	t0,20(sp)
  34:	00612c23          	sw	t1,24(sp)
  38:	00712e23          	sw	t2,28(sp)
  3c:	02812023          	sw	s0,32(sp)
  40:	02912223          	sw	s1,36(sp)
  44:	02a12423          	sw	a0,40(sp)
  48:	02b12623          	sw	a1,44(sp)
  4c:	02c12823          	sw	a2,48(sp)
  50:	02d12a23          	sw	a3,52(sp)
  54:	02e12c23          	sw	a4,56(sp)
  58:	02f12e23          	sw	a5,60(sp)
  5c:	05012023          	sw	a6,64(sp)
  60:	05112223          	sw	a7,68(sp)
  64:	05212423          	sw	s2,72(sp)
  68:	05312623          	sw	s3,76(sp)
  6c:	05412823          	sw	s4,80(sp)
  70:	05512a23          	sw	s5,84(sp)
  74:	05612c23          	sw	s6,88(sp)
  78:	05712e23          	sw	s7,92(sp)
  7c:	07812023          	sw	s8,96(sp)
  80:	07912223          	sw	s9,100(sp)
  84:	07a12423          	sw	s10,104(sp)
  88:	07b12623          	sw	s11,108(sp)
  8c:	07c12823          	sw	t3,112(sp)
  90:	07d12a23          	sw	t4,116(sp)
  94:	07e12c23          	sw	t5,120(sp)
  98:	07f12e23          	sw	t6,124(sp)
  9c:	34202573          	csrr	a0,mcause
  a0:	341025f3          	csrr	a1,mepc
  a4:	00010613          	mv	a2,sp
  a8:	61c000ef          	jal	ra,6c4 <handle_trap>
  ac:	34151073          	csrw	mepc,a0
  b0:	00412083          	lw	ra,4(sp)
  b4:	00812103          	lw	sp,8(sp)
  b8:	00c12183          	lw	gp,12(sp)
  bc:	01012203          	lw	tp,16(sp)
  c0:	01412283          	lw	t0,20(sp)
  c4:	01812303          	lw	t1,24(sp)
  c8:	01c12383          	lw	t2,28(sp)
  cc:	02012403          	lw	s0,32(sp)
  d0:	02412483          	lw	s1,36(sp)
  d4:	02812503          	lw	a0,40(sp)
  d8:	02c12583          	lw	a1,44(sp)
  dc:	03012603          	lw	a2,48(sp)
  e0:	03412683          	lw	a3,52(sp)
  e4:	03812703          	lw	a4,56(sp)
  e8:	03c12783          	lw	a5,60(sp)
  ec:	04012803          	lw	a6,64(sp)
  f0:	04412883          	lw	a7,68(sp)
  f4:	04812903          	lw	s2,72(sp)
  f8:	04c12983          	lw	s3,76(sp)
  fc:	05012a03          	lw	s4,80(sp)
 100:	05412a83          	lw	s5,84(sp)
 104:	05812b03          	lw	s6,88(sp)
 108:	05c12b83          	lw	s7,92(sp)
 10c:	06012c03          	lw	s8,96(sp)
 110:	06412c83          	lw	s9,100(sp)
 114:	06812d03          	lw	s10,104(sp)
 118:	06c12d83          	lw	s11,108(sp)
 11c:	07012e03          	lw	t3,112(sp)
 120:	07412e83          	lw	t4,116(sp)
 124:	07812f03          	lw	t5,120(sp)
 128:	07c12f83          	lw	t6,124(sp)
 12c:	08010113          	addi	sp,sp,128
 130:	30200073          	mret
 134:	0000                	unimp
 136:	0000                	unimp

00000138 <index_to_mask>:
 138:	fe010113          	addi	sp,sp,-32
 13c:	00812e23          	sw	s0,28(sp)
 140:	02010413          	addi	s0,sp,32
 144:	fea42623          	sw	a0,-20(s0)
 148:	fec42783          	lw	a5,-20(s0)
 14c:	00100713          	li	a4,1
 150:	00f717b3          	sll	a5,a4,a5
 154:	00078513          	mv	a0,a5
 158:	01c12403          	lw	s0,28(sp)
 15c:	02010113          	addi	sp,sp,32
 160:	00008067          	ret

00000164 <mem_write32>:
 164:	fe010113          	addi	sp,sp,-32
 168:	00812e23          	sw	s0,28(sp)
 16c:	02010413          	addi	s0,sp,32
 170:	fea42623          	sw	a0,-20(s0)
 174:	feb42423          	sw	a1,-24(s0)
 178:	fec42223          	sw	a2,-28(s0)
 17c:	fe842783          	lw	a5,-24(s0)
 180:	ffc7f713          	andi	a4,a5,-4
 184:	fec42783          	lw	a5,-20(s0)
 188:	00f707b3          	add	a5,a4,a5
 18c:	00078713          	mv	a4,a5
 190:	fe442783          	lw	a5,-28(s0)
 194:	00f72023          	sw	a5,0(a4)
 198:	00000013          	nop
 19c:	01c12403          	lw	s0,28(sp)
 1a0:	02010113          	addi	sp,sp,32
 1a4:	00008067          	ret

000001a8 <gpio_masked_bit_write>:
 1a8:	fd010113          	addi	sp,sp,-48
 1ac:	02112623          	sw	ra,44(sp)
 1b0:	02812423          	sw	s0,40(sp)
 1b4:	03010413          	addi	s0,sp,48
 1b8:	fca42e23          	sw	a0,-36(s0)
 1bc:	fcb42c23          	sw	a1,-40(s0)
 1c0:	fcc42a23          	sw	a2,-44(s0)
 1c4:	fcd42823          	sw	a3,-48(s0)
 1c8:	fd442703          	lw	a4,-44(s0)
 1cc:	000107b7          	lui	a5,0x10
 1d0:	fff78793          	addi	a5,a5,-1 # ffff <_etext+0xf81b>
 1d4:	00f777b3          	and	a5,a4,a5
 1d8:	fef42623          	sw	a5,-20(s0)
 1dc:	fd442703          	lw	a4,-44(s0)
 1e0:	ffff07b7          	lui	a5,0xffff0
 1e4:	00f777b3          	and	a5,a4,a5
 1e8:	fef42423          	sw	a5,-24(s0)
 1ec:	fec42783          	lw	a5,-20(s0)
 1f0:	02078863          	beqz	a5,220 <gpio_masked_bit_write+0x78>
 1f4:	fec42783          	lw	a5,-20(s0)
 1f8:	01079713          	slli	a4,a5,0x10
 1fc:	fd042683          	lw	a3,-48(s0)
 200:	000107b7          	lui	a5,0x10
 204:	fff78793          	addi	a5,a5,-1 # ffff <_etext+0xf81b>
 208:	00f6f7b3          	and	a5,a3,a5
 20c:	00f767b3          	or	a5,a4,a5
 210:	00078613          	mv	a2,a5
 214:	fdc42583          	lw	a1,-36(s0)
 218:	400c0537          	lui	a0,0x400c0
 21c:	f49ff0ef          	jal	ra,164 <mem_write32>
 220:	fe842783          	lw	a5,-24(s0)
 224:	02078263          	beqz	a5,248 <gpio_masked_bit_write+0xa0>
 228:	fd042783          	lw	a5,-48(s0)
 22c:	0107d713          	srli	a4,a5,0x10
 230:	fe842783          	lw	a5,-24(s0)
 234:	00f767b3          	or	a5,a4,a5
 238:	00078613          	mv	a2,a5
 23c:	fd842583          	lw	a1,-40(s0)
 240:	400c0537          	lui	a0,0x400c0
 244:	f21ff0ef          	jal	ra,164 <mem_write32>
 248:	00000013          	nop
 24c:	02c12083          	lw	ra,44(sp)
 250:	02812403          	lw	s0,40(sp)
 254:	03010113          	addi	sp,sp,48
 258:	00008067          	ret

0000025c <gpio_masked_write>:
 25c:	fe010113          	addi	sp,sp,-32
 260:	00112e23          	sw	ra,28(sp)
 264:	00812c23          	sw	s0,24(sp)
 268:	02010413          	addi	s0,sp,32
 26c:	fea42623          	sw	a0,-20(s0)
 270:	feb42423          	sw	a1,-24(s0)
 274:	fe842783          	lw	a5,-24(s0)
 278:	00078693          	mv	a3,a5
 27c:	000107b7          	lui	a5,0x10
 280:	fff78613          	addi	a2,a5,-1 # ffff <_etext+0xf81b>
 284:	01800593          	li	a1,24
 288:	01400513          	li	a0,20
 28c:	f1dff0ef          	jal	ra,1a8 <gpio_masked_bit_write>
 290:	00000013          	nop
 294:	01c12083          	lw	ra,28(sp)
 298:	01812403          	lw	s0,24(sp)
 29c:	02010113          	addi	sp,sp,32
 2a0:	00008067          	ret

000002a4 <read_word>:
 2a4:	fe010113          	addi	sp,sp,-32
 2a8:	00812e23          	sw	s0,28(sp)
 2ac:	02010413          	addi	s0,sp,32
 2b0:	fea42623          	sw	a0,-20(s0)
 2b4:	fec42783          	lw	a5,-20(s0)
 2b8:	0007a783          	lw	a5,0(a5)
 2bc:	00078513          	mv	a0,a5
 2c0:	01c12403          	lw	s0,28(sp)
 2c4:	02010113          	addi	sp,sp,32
 2c8:	00008067          	ret

000002cc <interrupt_complete>:
 2cc:	fd010113          	addi	sp,sp,-48
 2d0:	02812623          	sw	s0,44(sp)
 2d4:	03010413          	addi	s0,sp,48
 2d8:	fca42e23          	sw	a0,-36(s0)
 2dc:	400507b7          	lui	a5,0x40050
 2e0:	10878793          	addi	a5,a5,264 # 40050108 <__stack_top+0x3004f108>
 2e4:	fef42623          	sw	a5,-20(s0)
 2e8:	fec42783          	lw	a5,-20(s0)
 2ec:	fdc42703          	lw	a4,-36(s0)
 2f0:	00e7a023          	sw	a4,0(a5)
 2f4:	07c18713          	addi	a4,gp,124 # 1000007c <hart0_interrupt_matrix>
 2f8:	fdc42783          	lw	a5,-36(s0)
 2fc:	00479793          	slli	a5,a5,0x4
 300:	00f707b3          	add	a5,a4,a5
 304:	00200713          	li	a4,2
 308:	00e7a423          	sw	a4,8(a5)
 30c:	07c18713          	addi	a4,gp,124 # 1000007c <hart0_interrupt_matrix>
 310:	fdc42783          	lw	a5,-36(s0)
 314:	00479793          	slli	a5,a5,0x4
 318:	00f707b3          	add	a5,a4,a5
 31c:	00c7a783          	lw	a5,12(a5)
 320:	00178713          	addi	a4,a5,1
 324:	07c18693          	addi	a3,gp,124 # 1000007c <hart0_interrupt_matrix>
 328:	fdc42783          	lw	a5,-36(s0)
 32c:	00479793          	slli	a5,a5,0x4
 330:	00f687b3          	add	a5,a3,a5
 334:	00e7a623          	sw	a4,12(a5)
 338:	00000013          	nop
 33c:	02c12403          	lw	s0,44(sp)
 340:	03010113          	addi	sp,sp,48
 344:	00008067          	ret

00000348 <interrupt_claim_request>:
 348:	fe010113          	addi	sp,sp,-32
 34c:	00812e23          	sw	s0,28(sp)
 350:	02010413          	addi	s0,sp,32
 354:	fe042623          	sw	zero,-20(s0)
 358:	400507b7          	lui	a5,0x40050
 35c:	10878793          	addi	a5,a5,264 # 40050108 <__stack_top+0x3004f108>
 360:	fef42623          	sw	a5,-20(s0)
 364:	fec42783          	lw	a5,-20(s0)
 368:	0007a783          	lw	a5,0(a5)
 36c:	fef42423          	sw	a5,-24(s0)
 370:	fe842783          	lw	a5,-24(s0)
 374:	00078513          	mv	a0,a5
 378:	01c12403          	lw	s0,28(sp)
 37c:	02010113          	addi	sp,sp,32
 380:	00008067          	ret

00000384 <mach_plic_handler>:
 384:	fd010113          	addi	sp,sp,-48
 388:	02112623          	sw	ra,44(sp)
 38c:	02812423          	sw	s0,40(sp)
 390:	03010413          	addi	s0,sp,48
 394:	fca42e23          	sw	a0,-36(s0)
 398:	fcb42c23          	sw	a1,-40(s0)
 39c:	fadff0ef          	jal	ra,348 <interrupt_claim_request>
 3a0:	fea42623          	sw	a0,-20(s0)
 3a4:	07c18713          	addi	a4,gp,124 # 1000007c <hart0_interrupt_matrix>
 3a8:	fec42783          	lw	a5,-20(s0)
 3ac:	00479793          	slli	a5,a5,0x4
 3b0:	00f707b3          	add	a5,a4,a5
 3b4:	00100713          	li	a4,1
 3b8:	00e7a423          	sw	a4,8(a5)
 3bc:	00018713          	mv	a4,gp
 3c0:	fec42783          	lw	a5,-20(s0)
 3c4:	00279793          	slli	a5,a5,0x2
 3c8:	00f707b3          	add	a5,a4,a5
 3cc:	0007a783          	lw	a5,0(a5)
 3d0:	fec42503          	lw	a0,-20(s0)
 3d4:	000780e7          	jalr	a5
 3d8:	fec42503          	lw	a0,-20(s0)
 3dc:	ef1ff0ef          	jal	ra,2cc <interrupt_complete>
 3e0:	00000013          	nop
 3e4:	02c12083          	lw	ra,44(sp)
 3e8:	02812403          	lw	s0,40(sp)
 3ec:	03010113          	addi	sp,sp,48
 3f0:	00008067          	ret

000003f4 <interrupt_enable>:
 3f4:	fd010113          	addi	sp,sp,-48
 3f8:	02812623          	sw	s0,44(sp)
 3fc:	03010413          	addi	s0,sp,48
 400:	fca42e23          	sw	a0,-36(s0)
 404:	fe0407a3          	sb	zero,-17(s0)
 408:	400507b7          	lui	a5,0x40050
 40c:	10078793          	addi	a5,a5,256 # 40050100 <__stack_top+0x3004f100>
 410:	fef42423          	sw	a5,-24(s0)
 414:	fdc42783          	lw	a5,-36(s0)
 418:	00100713          	li	a4,1
 41c:	00f717b3          	sll	a5,a4,a5
 420:	0ff7f713          	andi	a4,a5,255
 424:	fe842783          	lw	a5,-24(s0)
 428:	00e78023          	sb	a4,0(a5)
 42c:	00000013          	nop
 430:	02c12403          	lw	s0,44(sp)
 434:	03010113          	addi	sp,sp,48
 438:	00008067          	ret

0000043c <interrupt_disable>:
 43c:	fd010113          	addi	sp,sp,-48
 440:	02812623          	sw	s0,44(sp)
 444:	03010413          	addi	s0,sp,48
 448:	fca42e23          	sw	a0,-36(s0)
 44c:	fe042623          	sw	zero,-20(s0)
 450:	400507b7          	lui	a5,0x40050
 454:	10078793          	addi	a5,a5,256 # 40050100 <__stack_top+0x3004f100>
 458:	fef42623          	sw	a5,-20(s0)
 45c:	fec42783          	lw	a5,-20(s0)
 460:	00078023          	sb	zero,0(a5)
 464:	07c18713          	addi	a4,gp,124 # 1000007c <hart0_interrupt_matrix>
 468:	fdc42783          	lw	a5,-36(s0)
 46c:	00479793          	slli	a5,a5,0x4
 470:	00f707b3          	add	a5,a4,a5
 474:	0007a423          	sw	zero,8(a5)
 478:	00000013          	nop
 47c:	02c12403          	lw	s0,44(sp)
 480:	03010113          	addi	sp,sp,48
 484:	00008067          	ret

00000488 <plic_priority_reg_offset>:
 488:	fd010113          	addi	sp,sp,-48
 48c:	02812623          	sw	s0,44(sp)
 490:	03010413          	addi	s0,sp,48
 494:	fca42e23          	sw	a0,-36(s0)
 498:	fdc42783          	lw	a5,-36(s0)
 49c:	00279793          	slli	a5,a5,0x2
 4a0:	fef42623          	sw	a5,-20(s0)
 4a4:	fec42783          	lw	a5,-20(s0)
 4a8:	00878793          	addi	a5,a5,8
 4ac:	00078513          	mv	a0,a5
 4b0:	02c12403          	lw	s0,44(sp)
 4b4:	03010113          	addi	sp,sp,48
 4b8:	00008067          	ret

000004bc <plic_set_priority>:
 4bc:	fd010113          	addi	sp,sp,-48
 4c0:	02112623          	sw	ra,44(sp)
 4c4:	02812423          	sw	s0,40(sp)
 4c8:	03010413          	addi	s0,sp,48
 4cc:	fca42e23          	sw	a0,-36(s0)
 4d0:	fcb42c23          	sw	a1,-40(s0)
 4d4:	fdc42783          	lw	a5,-36(s0)
 4d8:	00078513          	mv	a0,a5
 4dc:	fadff0ef          	jal	ra,488 <plic_priority_reg_offset>
 4e0:	fea42623          	sw	a0,-20(s0)
 4e4:	fec42783          	lw	a5,-20(s0)
 4e8:	fd842603          	lw	a2,-40(s0)
 4ec:	00078593          	mv	a1,a5
 4f0:	40050537          	lui	a0,0x40050
 4f4:	c71ff0ef          	jal	ra,164 <mem_write32>
 4f8:	00000013          	nop
 4fc:	02c12083          	lw	ra,44(sp)
 500:	02812403          	lw	s0,40(sp)
 504:	03010113          	addi	sp,sp,48
 508:	00008067          	ret

0000050c <plic_set_threshold>:
 50c:	fe010113          	addi	sp,sp,-32
 510:	00112e23          	sw	ra,28(sp)
 514:	00812c23          	sw	s0,24(sp)
 518:	02010413          	addi	s0,sp,32
 51c:	fea42623          	sw	a0,-20(s0)
 520:	fec42603          	lw	a2,-20(s0)
 524:	10400593          	li	a1,260
 528:	40050537          	lui	a0,0x40050
 52c:	c39ff0ef          	jal	ra,164 <mem_write32>
 530:	00000013          	nop
 534:	01c12083          	lw	ra,28(sp)
 538:	01812403          	lw	s0,24(sp)
 53c:	02010113          	addi	sp,sp,32
 540:	00008067          	ret

00000544 <plic_enable_interrupt>:
 544:	fe010113          	addi	sp,sp,-32
 548:	00112e23          	sw	ra,28(sp)
 54c:	00812c23          	sw	s0,24(sp)
 550:	02010413          	addi	s0,sp,32
 554:	fea42623          	sw	a0,-20(s0)
 558:	fec42603          	lw	a2,-20(s0)
 55c:	10000593          	li	a1,256
 560:	40050537          	lui	a0,0x40050
 564:	c01ff0ef          	jal	ra,164 <mem_write32>
 568:	00000013          	nop
 56c:	01c12083          	lw	ra,28(sp)
 570:	01812403          	lw	s0,24(sp)
 574:	02010113          	addi	sp,sp,32
 578:	00008067          	ret

0000057c <plic_set_trigger_type>:
 57c:	fe010113          	addi	sp,sp,-32
 580:	00112e23          	sw	ra,28(sp)
 584:	00812c23          	sw	s0,24(sp)
 588:	02010413          	addi	s0,sp,32
 58c:	00050793          	mv	a5,a0
 590:	fef407a3          	sb	a5,-17(s0)
 594:	fef44783          	lbu	a5,-17(s0)
 598:	00078613          	mv	a2,a5
 59c:	00400593          	li	a1,4
 5a0:	40050537          	lui	a0,0x40050
 5a4:	bc1ff0ef          	jal	ra,164 <mem_write32>
 5a8:	00000013          	nop
 5ac:	01c12083          	lw	ra,28(sp)
 5b0:	01812403          	lw	s0,24(sp)
 5b4:	02010113          	addi	sp,sp,32
 5b8:	00008067          	ret

000005bc <isr_default>:
 5bc:	fe010113          	addi	sp,sp,-32
 5c0:	00812e23          	sw	s0,28(sp)
 5c4:	02010413          	addi	s0,sp,32
 5c8:	fea42623          	sw	a0,-20(s0)
 5cc:	00000013          	nop
 5d0:	01c12403          	lw	s0,28(sp)
 5d4:	02010113          	addi	sp,sp,32
 5d8:	00008067          	ret

000005dc <configure_interrupt>:
 5dc:	fe010113          	addi	sp,sp,-32
 5e0:	00112e23          	sw	ra,28(sp)
 5e4:	00812c23          	sw	s0,24(sp)
 5e8:	02010413          	addi	s0,sp,32
 5ec:	fea42623          	sw	a0,-20(s0)
 5f0:	fec42503          	lw	a0,-20(s0)
 5f4:	e01ff0ef          	jal	ra,3f4 <interrupt_enable>
 5f8:	00000013          	nop
 5fc:	01c12083          	lw	ra,28(sp)
 600:	01812403          	lw	s0,24(sp)
 604:	02010113          	addi	sp,sp,32
 608:	00008067          	ret

0000060c <trap_init>:
 60c:	ff010113          	addi	sp,sp,-16
 610:	00812623          	sw	s0,12(sp)
 614:	01010413          	addi	s0,sp,16
 618:	27418793          	addi	a5,gp,628 # 10000274 <mcause_interrupt_table>
 61c:	00000717          	auipc	a4,0x0
 620:	d6870713          	addi	a4,a4,-664 # 384 <mach_plic_handler>
 624:	00e7a023          	sw	a4,0(a5)
 628:	26c18793          	addi	a5,gp,620 # 1000026c <mcause_trap_table>
 62c:	00000717          	auipc	a4,0x0
 630:	08070713          	addi	a4,a4,128 # 6ac <default_handler>
 634:	00e7a023          	sw	a4,0(a5)
 638:	00000013          	nop
 63c:	00c12403          	lw	s0,12(sp)
 640:	01010113          	addi	sp,sp,16
 644:	00008067          	ret

00000648 <init>:
 648:	ff010113          	addi	sp,sp,-16
 64c:	00112623          	sw	ra,12(sp)
 650:	00812423          	sw	s0,8(sp)
 654:	01010413          	addi	s0,sp,16
 658:	fb5ff0ef          	jal	ra,60c <trap_init>
 65c:	114000ef          	jal	ra,770 <main>
 660:	00000013          	nop
 664:	00c12083          	lw	ra,12(sp)
 668:	00812403          	lw	s0,8(sp)
 66c:	01010113          	addi	sp,sp,16
 670:	00008067          	ret

00000674 <extract_ie_code>:
 674:	fd010113          	addi	sp,sp,-48
 678:	02812623          	sw	s0,44(sp)
 67c:	03010413          	addi	s0,sp,48
 680:	fca42e23          	sw	a0,-36(s0)
 684:	fdc42703          	lw	a4,-36(s0)
 688:	800007b7          	lui	a5,0x80000
 68c:	fff7c793          	not	a5,a5
 690:	00f777b3          	and	a5,a4,a5
 694:	fef42623          	sw	a5,-20(s0)
 698:	fec42783          	lw	a5,-20(s0)
 69c:	00078513          	mv	a0,a5
 6a0:	02c12403          	lw	s0,44(sp)
 6a4:	03010113          	addi	sp,sp,48
 6a8:	00008067          	ret

000006ac <default_handler>:
 6ac:	fe010113          	addi	sp,sp,-32
 6b0:	00812e23          	sw	s0,28(sp)
 6b4:	02010413          	addi	s0,sp,32
 6b8:	fea42623          	sw	a0,-20(s0)
 6bc:	feb42423          	sw	a1,-24(s0)
 6c0:	0000006f          	j	6c0 <default_handler+0x14>

000006c4 <handle_trap>:
 6c4:	fd010113          	addi	sp,sp,-48
 6c8:	02112623          	sw	ra,44(sp)
 6cc:	02812423          	sw	s0,40(sp)
 6d0:	03010413          	addi	s0,sp,48
 6d4:	fca42e23          	sw	a0,-36(s0)
 6d8:	fcb42c23          	sw	a1,-40(s0)
 6dc:	fe042623          	sw	zero,-20(s0)
 6e0:	fe042423          	sw	zero,-24(s0)
 6e4:	01f00793          	li	a5,31
 6e8:	fef42423          	sw	a5,-24(s0)
 6ec:	fe842783          	lw	a5,-24(s0)
 6f0:	00100713          	li	a4,1
 6f4:	00f717b3          	sll	a5,a4,a5
 6f8:	00078713          	mv	a4,a5
 6fc:	fdc42783          	lw	a5,-36(s0)
 700:	00f777b3          	and	a5,a4,a5
 704:	02078a63          	beqz	a5,738 <handle_trap+0x74>
 708:	fdc42503          	lw	a0,-36(s0)
 70c:	f69ff0ef          	jal	ra,674 <extract_ie_code>
 710:	fea42623          	sw	a0,-20(s0)
 714:	27418713          	addi	a4,gp,628 # 10000274 <mcause_interrupt_table>
 718:	fec42783          	lw	a5,-20(s0)
 71c:	00279793          	slli	a5,a5,0x2
 720:	00f707b3          	add	a5,a4,a5
 724:	0007a783          	lw	a5,0(a5) # 80000000 <__stack_top+0x6ffff000>
 728:	fd842583          	lw	a1,-40(s0)
 72c:	fdc42503          	lw	a0,-36(s0)
 730:	000780e7          	jalr	a5
 734:	0240006f          	j	758 <handle_trap+0x94>
 738:	26c18713          	addi	a4,gp,620 # 1000026c <mcause_trap_table>
 73c:	fdc42783          	lw	a5,-36(s0)
 740:	00279793          	slli	a5,a5,0x2
 744:	00f707b3          	add	a5,a4,a5
 748:	0007a783          	lw	a5,0(a5)
 74c:	fd842583          	lw	a1,-40(s0)
 750:	fdc42503          	lw	a0,-36(s0)
 754:	000780e7          	jalr	a5
 758:	fd842783          	lw	a5,-40(s0)
 75c:	00078513          	mv	a0,a5
 760:	02c12083          	lw	ra,44(sp)
 764:	02812403          	lw	s0,40(sp)
 768:	03010113          	addi	sp,sp,48
 76c:	00008067          	ret

00000770 <main>:
 770:	fe010113          	addi	sp,sp,-32
 774:	00112e23          	sw	ra,28(sp)
 778:	00812c23          	sw	s0,24(sp)
 77c:	02010413          	addi	s0,sp,32
 780:	400c07b7          	lui	a5,0x400c0
 784:	00478793          	addi	a5,a5,4 # 400c0004 <__stack_top+0x300bf004>
 788:	fef42623          	sw	a5,-20(s0)
 78c:	fec42783          	lw	a5,-20(s0)
 790:	00800713          	li	a4,8
 794:	00e7a023          	sw	a4,0(a5)
 798:	400c07b7          	lui	a5,0x400c0
 79c:	03078793          	addi	a5,a5,48 # 400c0030 <__stack_top+0x300bf030>
 7a0:	fef42423          	sw	a5,-24(s0)
 7a4:	fe842783          	lw	a5,-24(s0)
 7a8:	00800713          	li	a4,8
 7ac:	00e7a023          	sw	a4,0(a5)
 7b0:	00200513          	li	a0,2
 7b4:	d59ff0ef          	jal	ra,50c <plic_set_threshold>
 7b8:	00300593          	li	a1,3
 7bc:	00300513          	li	a0,3
 7c0:	cfdff0ef          	jal	ra,4bc <plic_set_priority>
 7c4:	00800513          	li	a0,8
 7c8:	d7dff0ef          	jal	ra,544 <plic_enable_interrupt>
 7cc:	00000793          	li	a5,0
 7d0:	00078513          	mv	a0,a5
 7d4:	01c12083          	lw	ra,28(sp)
 7d8:	01812403          	lw	s0,24(sp)
 7dc:	02010113          	addi	sp,sp,32
 7e0:	00008067          	ret

Disassembly of section .eh_frame:

000007e4 <__global_pointer$-0xffff81c>:
 7e4:	0014                	0x14
 7e6:	0000                	unimp
 7e8:	0000                	unimp
 7ea:	0000                	unimp
 7ec:	00527a03          	0x527a03
 7f0:	7c01                	lui	s8,0xfffe0
 7f2:	0101                	addi	sp,sp,0
 7f4:	07020d1b          	0x7020d1b
 7f8:	0001                	nop
 7fa:	0000                	unimp
 7fc:	0010                	0x10
 7fe:	0000                	unimp
 800:	001c                	0x1c
 802:	0000                	unimp
 804:	f7fc                	fsw	fa5,108(a5)
 806:	ffff                	0xffff
 808:	0018                	0x18
 80a:	0000                	unimp
 80c:	0000                	unimp
 80e:	0000                	unimp

Disassembly of section .bss:

10000000 <isr_table>:
10000000:	0000                	unimp
10000002:	0000                	unimp
10000004:	0000                	unimp
10000006:	0000                	unimp
10000008:	0000                	unimp
1000000a:	0000                	unimp
1000000c:	0000                	unimp
1000000e:	0000                	unimp
10000010:	0000                	unimp
10000012:	0000                	unimp
10000014:	0000                	unimp
10000016:	0000                	unimp
10000018:	0000                	unimp
1000001a:	0000                	unimp
1000001c:	0000                	unimp
1000001e:	0000                	unimp
10000020:	0000                	unimp
10000022:	0000                	unimp
10000024:	0000                	unimp
10000026:	0000                	unimp
10000028:	0000                	unimp
1000002a:	0000                	unimp
1000002c:	0000                	unimp
1000002e:	0000                	unimp
10000030:	0000                	unimp
10000032:	0000                	unimp
10000034:	0000                	unimp
10000036:	0000                	unimp
10000038:	0000                	unimp
1000003a:	0000                	unimp
1000003c:	0000                	unimp
1000003e:	0000                	unimp
10000040:	0000                	unimp
10000042:	0000                	unimp
10000044:	0000                	unimp
10000046:	0000                	unimp
10000048:	0000                	unimp
1000004a:	0000                	unimp
1000004c:	0000                	unimp
1000004e:	0000                	unimp
10000050:	0000                	unimp
10000052:	0000                	unimp
10000054:	0000                	unimp
10000056:	0000                	unimp
10000058:	0000                	unimp
1000005a:	0000                	unimp
1000005c:	0000                	unimp
1000005e:	0000                	unimp
10000060:	0000                	unimp
10000062:	0000                	unimp
10000064:	0000                	unimp
10000066:	0000                	unimp
10000068:	0000                	unimp
1000006a:	0000                	unimp
1000006c:	0000                	unimp
1000006e:	0000                	unimp
10000070:	0000                	unimp
10000072:	0000                	unimp
10000074:	0000                	unimp
10000076:	0000                	unimp
10000078:	0000                	unimp
1000007a:	0000                	unimp

1000007c <hart0_interrupt_matrix>:
1000007c:	0000                	unimp
1000007e:	0000                	unimp
10000080:	0000                	unimp
10000082:	0000                	unimp
10000084:	0000                	unimp
10000086:	0000                	unimp
10000088:	0000                	unimp
1000008a:	0000                	unimp
1000008c:	0000                	unimp
1000008e:	0000                	unimp
10000090:	0000                	unimp
10000092:	0000                	unimp
10000094:	0000                	unimp
10000096:	0000                	unimp
10000098:	0000                	unimp
1000009a:	0000                	unimp
1000009c:	0000                	unimp
1000009e:	0000                	unimp
100000a0:	0000                	unimp
100000a2:	0000                	unimp
100000a4:	0000                	unimp
100000a6:	0000                	unimp
100000a8:	0000                	unimp
100000aa:	0000                	unimp
100000ac:	0000                	unimp
100000ae:	0000                	unimp
100000b0:	0000                	unimp
100000b2:	0000                	unimp
100000b4:	0000                	unimp
100000b6:	0000                	unimp
100000b8:	0000                	unimp
100000ba:	0000                	unimp
100000bc:	0000                	unimp
100000be:	0000                	unimp
100000c0:	0000                	unimp
100000c2:	0000                	unimp
100000c4:	0000                	unimp
100000c6:	0000                	unimp
100000c8:	0000                	unimp
100000ca:	0000                	unimp
100000cc:	0000                	unimp
100000ce:	0000                	unimp
100000d0:	0000                	unimp
100000d2:	0000                	unimp
100000d4:	0000                	unimp
100000d6:	0000                	unimp
100000d8:	0000                	unimp
100000da:	0000                	unimp
100000dc:	0000                	unimp
100000de:	0000                	unimp
100000e0:	0000                	unimp
100000e2:	0000                	unimp
100000e4:	0000                	unimp
100000e6:	0000                	unimp
100000e8:	0000                	unimp
100000ea:	0000                	unimp
100000ec:	0000                	unimp
100000ee:	0000                	unimp
100000f0:	0000                	unimp
100000f2:	0000                	unimp
100000f4:	0000                	unimp
100000f6:	0000                	unimp
100000f8:	0000                	unimp
100000fa:	0000                	unimp
100000fc:	0000                	unimp
100000fe:	0000                	unimp
10000100:	0000                	unimp
10000102:	0000                	unimp
10000104:	0000                	unimp
10000106:	0000                	unimp
10000108:	0000                	unimp
1000010a:	0000                	unimp
1000010c:	0000                	unimp
1000010e:	0000                	unimp
10000110:	0000                	unimp
10000112:	0000                	unimp
10000114:	0000                	unimp
10000116:	0000                	unimp
10000118:	0000                	unimp
1000011a:	0000                	unimp
1000011c:	0000                	unimp
1000011e:	0000                	unimp
10000120:	0000                	unimp
10000122:	0000                	unimp
10000124:	0000                	unimp
10000126:	0000                	unimp
10000128:	0000                	unimp
1000012a:	0000                	unimp
1000012c:	0000                	unimp
1000012e:	0000                	unimp
10000130:	0000                	unimp
10000132:	0000                	unimp
10000134:	0000                	unimp
10000136:	0000                	unimp
10000138:	0000                	unimp
1000013a:	0000                	unimp
1000013c:	0000                	unimp
1000013e:	0000                	unimp
10000140:	0000                	unimp
10000142:	0000                	unimp
10000144:	0000                	unimp
10000146:	0000                	unimp
10000148:	0000                	unimp
1000014a:	0000                	unimp
1000014c:	0000                	unimp
1000014e:	0000                	unimp
10000150:	0000                	unimp
10000152:	0000                	unimp
10000154:	0000                	unimp
10000156:	0000                	unimp
10000158:	0000                	unimp
1000015a:	0000                	unimp
1000015c:	0000                	unimp
1000015e:	0000                	unimp
10000160:	0000                	unimp
10000162:	0000                	unimp
10000164:	0000                	unimp
10000166:	0000                	unimp
10000168:	0000                	unimp
1000016a:	0000                	unimp
1000016c:	0000                	unimp
1000016e:	0000                	unimp
10000170:	0000                	unimp
10000172:	0000                	unimp
10000174:	0000                	unimp
10000176:	0000                	unimp
10000178:	0000                	unimp
1000017a:	0000                	unimp
1000017c:	0000                	unimp
1000017e:	0000                	unimp
10000180:	0000                	unimp
10000182:	0000                	unimp
10000184:	0000                	unimp
10000186:	0000                	unimp
10000188:	0000                	unimp
1000018a:	0000                	unimp
1000018c:	0000                	unimp
1000018e:	0000                	unimp
10000190:	0000                	unimp
10000192:	0000                	unimp
10000194:	0000                	unimp
10000196:	0000                	unimp
10000198:	0000                	unimp
1000019a:	0000                	unimp
1000019c:	0000                	unimp
1000019e:	0000                	unimp
100001a0:	0000                	unimp
100001a2:	0000                	unimp
100001a4:	0000                	unimp
100001a6:	0000                	unimp
100001a8:	0000                	unimp
100001aa:	0000                	unimp
100001ac:	0000                	unimp
100001ae:	0000                	unimp
100001b0:	0000                	unimp
100001b2:	0000                	unimp
100001b4:	0000                	unimp
100001b6:	0000                	unimp
100001b8:	0000                	unimp
100001ba:	0000                	unimp
100001bc:	0000                	unimp
100001be:	0000                	unimp
100001c0:	0000                	unimp
100001c2:	0000                	unimp
100001c4:	0000                	unimp
100001c6:	0000                	unimp
100001c8:	0000                	unimp
100001ca:	0000                	unimp
100001cc:	0000                	unimp
100001ce:	0000                	unimp
100001d0:	0000                	unimp
100001d2:	0000                	unimp
100001d4:	0000                	unimp
100001d6:	0000                	unimp
100001d8:	0000                	unimp
100001da:	0000                	unimp
100001dc:	0000                	unimp
100001de:	0000                	unimp
100001e0:	0000                	unimp
100001e2:	0000                	unimp
100001e4:	0000                	unimp
100001e6:	0000                	unimp
100001e8:	0000                	unimp
100001ea:	0000                	unimp
100001ec:	0000                	unimp
100001ee:	0000                	unimp
100001f0:	0000                	unimp
100001f2:	0000                	unimp
100001f4:	0000                	unimp
100001f6:	0000                	unimp
100001f8:	0000                	unimp
100001fa:	0000                	unimp
100001fc:	0000                	unimp
100001fe:	0000                	unimp
10000200:	0000                	unimp
10000202:	0000                	unimp
10000204:	0000                	unimp
10000206:	0000                	unimp
10000208:	0000                	unimp
1000020a:	0000                	unimp
1000020c:	0000                	unimp
1000020e:	0000                	unimp
10000210:	0000                	unimp
10000212:	0000                	unimp
10000214:	0000                	unimp
10000216:	0000                	unimp
10000218:	0000                	unimp
1000021a:	0000                	unimp
1000021c:	0000                	unimp
1000021e:	0000                	unimp
10000220:	0000                	unimp
10000222:	0000                	unimp
10000224:	0000                	unimp
10000226:	0000                	unimp
10000228:	0000                	unimp
1000022a:	0000                	unimp
1000022c:	0000                	unimp
1000022e:	0000                	unimp
10000230:	0000                	unimp
10000232:	0000                	unimp
10000234:	0000                	unimp
10000236:	0000                	unimp
10000238:	0000                	unimp
1000023a:	0000                	unimp
1000023c:	0000                	unimp
1000023e:	0000                	unimp
10000240:	0000                	unimp
10000242:	0000                	unimp
10000244:	0000                	unimp
10000246:	0000                	unimp
10000248:	0000                	unimp
1000024a:	0000                	unimp
1000024c:	0000                	unimp
1000024e:	0000                	unimp
10000250:	0000                	unimp
10000252:	0000                	unimp
10000254:	0000                	unimp
10000256:	0000                	unimp
10000258:	0000                	unimp
1000025a:	0000                	unimp
1000025c:	0000                	unimp
1000025e:	0000                	unimp
10000260:	0000                	unimp
10000262:	0000                	unimp
10000264:	0000                	unimp
10000266:	0000                	unimp
10000268:	0000                	unimp
1000026a:	0000                	unimp

Disassembly of section .sbss:

1000026c <mcause_trap_table>:
1000026c:	0000                	unimp
1000026e:	0000                	unimp
10000270:	0000                	unimp
10000272:	0000                	unimp

10000274 <mcause_interrupt_table>:
10000274:	0000                	unimp
10000276:	0000                	unimp
10000278:	0000                	unimp
1000027a:	0000                	unimp

Disassembly of section .riscv.attributes:

00000000 <.riscv.attributes>:
   0:	1f41                	addi	t5,t5,-16
   2:	0000                	unimp
   4:	7200                	flw	fs0,32(a2)
   6:	7369                	lui	t1,0xffffa
   8:	01007663          	bgeu	zero,a6,14 <_start+0x14>
   c:	0015                	c.nop	5
   e:	0000                	unimp
  10:	1004                	addi	s1,sp,32
  12:	7205                	lui	tp,0xfffe1
  14:	3376                	fld	ft6,376(sp)
  16:	6932                	flw	fs2,12(sp)
  18:	7032                	flw	ft0,44(sp)
  1a:	0030                	addi	a2,sp,8
  1c:	0108                	addi	a0,sp,128
  1e:	0b0a                	slli	s6,s6,0x2

Disassembly of section .comment:

00000000 <.comment>:
   0:	3a434347          	fmsub.d	ft6,ft6,ft4,ft7,rmm
   4:	2820                	fld	fs0,80(s0)
   6:	29554e47          	fmsub.s	ft8,fa0,fs5,ft5,rmm
   a:	3120                	fld	fs0,96(a0)
   c:	2e30                	fld	fa2,88(a2)
   e:	2e32                	fld	ft8,264(sp)
  10:	0030                	addi	a2,sp,8

Disassembly of section .debug_info:

00000000 <.debug_info>:
   0:	0195                	addi	gp,gp,5
   2:	0000                	unimp
   4:	0004                	0x4
   6:	0000                	unimp
   8:	0000                	unimp
   a:	0104                	addi	s1,sp,128
   c:	0039                	c.nop	14
   e:	0000                	unimp
  10:	100c                	addi	a1,sp,32
  12:	0000                	unimp
  14:	2e00                	fld	fs0,24(a2)
  16:	0001                	nop
  18:	3800                	fld	fs0,48(s0)
  1a:	0001                	nop
  1c:	6c00                	flw	fs0,24(s0)
  1e:	0001                	nop
  20:	0000                	unimp
  22:	0000                	unimp
  24:	0200                	addi	s0,sp,256
  26:	0601                	addi	a2,a2,0
  28:	00b6                	slli	ra,ra,0xd
  2a:	0000                	unimp
  2c:	0102                	c.slli64	sp
  2e:	b408                	fsd	fa0,40(s0)
  30:	0000                	unimp
  32:	0200                	addi	s0,sp,256
  34:	0502                	c.slli64	a0
  36:	014e                	slli	sp,sp,0x13
  38:	0000                	unimp
  3a:	0202                	c.slli64	tp
  3c:	0000a107          	flw	ft2,0(ra)
  40:	0200                	addi	s0,sp,256
  42:	0504                	addi	s1,sp,640
  44:	0125                	addi	sp,sp,9
  46:	0000                	unimp
  48:	0000c203          	lbu	tp,0(ra)
  4c:	0200                	addi	s0,sp,256
  4e:	0054194f          	fnmadd.s	fs2,fs0,ft5,ft0,rtz
  52:	0000                	unimp
  54:	0402                	c.slli64	s0
  56:	0000e807          	0xe807
  5a:	0200                	addi	s0,sp,256
  5c:	0508                	addi	a0,sp,640
  5e:	0120                	addi	s0,sp,136
  60:	0000                	unimp
  62:	0802                	c.slli64	a6
  64:	0000e307          	0xe307
  68:	0400                	addi	s0,sp,512
  6a:	0504                	addi	s1,sp,640
  6c:	6e69                	lui	t3,0x1a
  6e:	0074                	addi	a3,sp,12
  70:	0402                	c.slli64	s0
  72:	0000ed07          	0xed07
  76:	0300                	addi	s0,sp,384
  78:	00c4                	addi	s1,sp,68
  7a:	0000                	unimp
  7c:	48143003          	0x48143003
  80:	0000                	unimp
  82:	0500                	addi	s0,sp,640
  84:	00000077          	0x77
  88:	8f06                	mv	t5,ra
  8a:	0000                	unimp
  8c:	0100                	addi	s0,sp,128
  8e:	0631                	addi	a2,a2,12
  90:	025c                	addi	a5,sp,260
  92:	0000                	unimp
  94:	0048                	addi	a0,sp,4
  96:	0000                	unimp
  98:	9c01                	0x9c01
  9a:	00bd                	addi	ra,ra,15
  9c:	0000                	unimp
  9e:	6e697007          	0x6e697007
  a2:	0100                	addi	s0,sp,128
  a4:	1c31                	addi	s8,s8,-20
  a6:	0069                	c.nop	26
  a8:	0000                	unimp
  aa:	9102                	jalr	sp
  ac:	076c                	addi	a1,sp,908
  ae:	6176                	flw	ft2,92(sp)
  b0:	006c                	addi	a1,sp,12
  b2:	3101                	jal	fffffcb2 <__stack_top+0xefffecb2>
  b4:	6925                	lui	s2,0x9
  b6:	0000                	unimp
  b8:	0200                	addi	s0,sp,256
  ba:	6891                	lui	a7,0x4
  bc:	0800                	addi	s0,sp,16
  be:	00fa                	slli	ra,ra,0x1e
  c0:	0000                	unimp
  c2:	2001                	jal	c2 <_stext+0xaa>
  c4:	a80d                	j	f6 <_stext+0xde>
  c6:	0001                	nop
  c8:	b400                	fsd	fs0,40(s0)
  ca:	0000                	unimp
  cc:	0100                	addi	s0,sp,128
  ce:	2e9c                	fld	fa5,24(a3)
  d0:	0001                	nop
  d2:	0900                	addi	s0,sp,144
  d4:	00d2                	slli	ra,ra,0x14
  d6:	0000                	unimp
  d8:	2001                	jal	d8 <_stext+0xc0>
  da:	772c                	flw	fa1,104(a4)
  dc:	0000                	unimp
  de:	0200                	addi	s0,sp,256
  e0:	5c91                	li	s9,-28
  e2:	2809                	jal	f4 <_stext+0xdc>
  e4:	0000                	unimp
  e6:	0100                	addi	s0,sp,128
  e8:	3521                	jal	fffffef0 <__stack_top+0xefffeef0>
  ea:	00000077          	0x77
  ee:	9102                	jalr	sp
  f0:	0958                	addi	a4,sp,148
  f2:	00000167          	jalr	sp,zero # 0 <_start>
  f6:	2201                	jal	1f6 <gpio_masked_bit_write+0x4e>
  f8:	7735                	lui	a4,0xfffed
  fa:	0000                	unimp
  fc:	0200                	addi	s0,sp,256
  fe:	5491                	li	s1,-28
 100:	6c617607          	0x6c617607
 104:	0100                	addi	s0,sp,128
 106:	4422                	lw	s0,8(sp)
 108:	00000077          	0x77
 10c:	9102                	jalr	sp
 10e:	0a50                	addi	a2,sp,276
 110:	0000                	unimp
 112:	0000                	unimp
 114:	2501                	jal	714 <handle_trap+0x50>
 116:	8312                	mv	t1,tp
 118:	0000                	unimp
 11a:	0200                	addi	s0,sp,256
 11c:	6c91                	lui	s9,0x4
 11e:	100a                	c.slli	zero,0x22
 120:	0001                	nop
 122:	0100                	addi	s0,sp,128
 124:	1226                	slli	tp,tp,0x29
 126:	00000083          	lb	ra,0(zero) # 0 <_start>
 12a:	9102                	jalr	sp
 12c:	0068                	addi	a0,sp,12
 12e:	00016c0b          	0x16c0b
 132:	0100                	addi	s0,sp,128
 134:	01640d07          	0x1640d07
 138:	0000                	unimp
 13a:	0044                	addi	s1,sp,4
 13c:	0000                	unimp
 13e:	9c01                	0x9c01
 140:	0172                	slli	sp,sp,0x1c
 142:	0000                	unimp
 144:	cd09                	beqz	a0,15e <index_to_mask+0x26>
 146:	0000                	unimp
 148:	0100                	addi	s0,sp,128
 14a:	00772207          	flw	ft4,7(a4) # fffed007 <__stack_top+0xeffec007>
 14e:	0000                	unimp
 150:	9102                	jalr	sp
 152:	096c                	addi	a1,sp,156
 154:	01f4                	addi	a3,sp,204
 156:	0000                	unimp
 158:	0701                	addi	a4,a4,0
 15a:	7731                	lui	a4,0xfffec
 15c:	0000                	unimp
 15e:	0200                	addi	s0,sp,256
 160:	6891                	lui	a7,0x4
 162:	dc09                	beqz	s0,7c <_stext+0x64>
 164:	0001                	nop
 166:	0100                	addi	s0,sp,128
 168:	2a08                	fld	fa0,16(a2)
 16a:	00000077          	0x77
 16e:	9102                	jalr	sp
 170:	0064                	addi	s1,sp,12
 172:	5e0c                	lw	a1,56(a2)
 174:	0001                	nop
 176:	0100                	addi	s0,sp,128
 178:	1105                	addi	sp,sp,-31
 17a:	00000077          	0x77
 17e:	0138                	addi	a4,sp,136
 180:	0000                	unimp
 182:	002c                	addi	a1,sp,8
 184:	0000                	unimp
 186:	9c01                	0x9c01
 188:	5809                	li	a6,-30
 18a:	0001                	nop
 18c:	0100                	addi	s0,sp,128
 18e:	2805                	jal	1be <gpio_masked_bit_write+0x16>
 190:	00000077          	0x77
 194:	9102                	jalr	sp
 196:	006c                	addi	a1,sp,12
 198:	5300                	lw	s0,32(a4)
 19a:	0004                	0x4
 19c:	0400                	addi	s0,sp,512
 19e:	df00                	sw	s0,56(a4)
 1a0:	0000                	unimp
 1a2:	0400                	addi	s0,sp,512
 1a4:	3901                	jal	fffffdb4 <__stack_top+0xefffedb4>
 1a6:	0000                	unimp
 1a8:	0c00                	addi	s0,sp,528
 1aa:	0246                	slli	tp,tp,0x11
 1ac:	0000                	unimp
 1ae:	012e                	slli	sp,sp,0xb
 1b0:	0000                	unimp
 1b2:	02a4                	addi	s1,sp,328
 1b4:	0000                	unimp
 1b6:	0368                	addi	a0,sp,396
 1b8:	0000                	unimp
 1ba:	0165                	addi	sp,sp,25
 1bc:	0000                	unimp
 1be:	0102                	c.slli64	sp
 1c0:	b606                	fsd	ft1,296(sp)
 1c2:	0000                	unimp
 1c4:	0300                	addi	s0,sp,384
 1c6:	0000026f          	jal	tp,1c6 <gpio_masked_bit_write+0x1e>
 1ca:	2b02                	fld	fs6,0(sp)
 1cc:	3818                	fld	fa4,48(s0)
 1ce:	0000                	unimp
 1d0:	0200                	addi	s0,sp,256
 1d2:	0801                	addi	a6,a6,0
 1d4:	00b4                	addi	a3,sp,72
 1d6:	0000                	unimp
 1d8:	0202                	c.slli64	tp
 1da:	4e05                	li	t3,1
 1dc:	0001                	nop
 1de:	0200                	addi	s0,sp,256
 1e0:	0702                	c.slli64	a4
 1e2:	00a1                	addi	ra,ra,8
 1e4:	0000                	unimp
 1e6:	0402                	c.slli64	s0
 1e8:	2505                	jal	808 <_etext+0x24>
 1ea:	0001                	nop
 1ec:	0300                	addi	s0,sp,384
 1ee:	00c2                	slli	ra,ra,0x10
 1f0:	0000                	unimp
 1f2:	4f02                	lw	t5,0(sp)
 1f4:	6019                	c.lui	zero,0x6
 1f6:	0000                	unimp
 1f8:	0200                	addi	s0,sp,256
 1fa:	0704                	addi	s1,sp,896
 1fc:	00e8                	addi	a0,sp,76
 1fe:	0000                	unimp
 200:	0802                	c.slli64	a6
 202:	2005                	jal	222 <gpio_masked_bit_write+0x7a>
 204:	0001                	nop
 206:	0200                	addi	s0,sp,256
 208:	0708                	addi	a0,sp,896
 20a:	000000e3          	beqz	zero,a0a <_etext+0x226>
 20e:	0404                	addi	s1,sp,512
 210:	6905                	lui	s2,0x1
 212:	746e                	flw	fs0,248(sp)
 214:	0300                	addi	s0,sp,384
 216:	000002fb          	0x2fb
 21a:	e802                	fsw	ft0,16(sp)
 21c:	881a                	mv	a6,t1
 21e:	0000                	unimp
 220:	0200                	addi	s0,sp,256
 222:	0704                	addi	s1,sp,896
 224:	00ed                	addi	ra,ra,27
 226:	0000                	unimp
 228:	00027103          	0x27103
 22c:	0300                	addi	s0,sp,384
 22e:	1318                	addi	a4,sp,416
 230:	002c                	addi	a1,sp,8
 232:	0000                	unimp
 234:	0000c403          	lbu	s0,0(ra)
 238:	0300                	addi	s0,sp,384
 23a:	1430                	addi	a2,sp,552
 23c:	0054                	addi	a3,sp,4
 23e:	0000                	unimp
 240:	0002fd03          	0x2fd03
 244:	0300                	addi	s0,sp,384
 246:	1552                	slli	a0,a0,0x34
 248:	007c                	addi	a5,sp,12
 24a:	0000                	unimp
 24c:	0705                	addi	a4,a4,1
 24e:	8804                	0x8804
 250:	0000                	unimp
 252:	0400                	addi	s0,sp,512
 254:	00da0123          	sb	a3,2(s4)
 258:	0000                	unimp
 25a:	ec06                	fsw	ft1,24(sp)
 25c:	0002                	c.slli64	zero
 25e:	0000                	unimp
 260:	ee06                	fsw	ft1,28(sp)
 262:	0002                	c.slli64	zero
 264:	0100                	addi	s0,sp,128
 266:	c406                	sw	ra,8(sp)
 268:	0002                	c.slli64	zero
 26a:	0200                	addi	s0,sp,256
 26c:	9b06                	add	s6,s6,ra
 26e:	0001                	nop
 270:	0300                	addi	s0,sp,384
 272:	0300                	addi	s0,sp,384
 274:	0319                	addi	t1,t1,6
 276:	0000                	unimp
 278:	2804                	fld	fs1,16(s0)
 27a:	b302                	fsd	ft0,416(sp)
 27c:	0000                	unimp
 27e:	0700                	addi	s0,sp,896
 280:	0410                	addi	a2,sp,512
 282:	092c                	addi	a1,sp,152
 284:	00000123          	sb	zero,2(zero) # 2 <_start+0x2>
 288:	6908                	flw	fa0,16(a0)
 28a:	0064                	addi	s1,sp,12
 28c:	2e04                	fld	fs1,24(a2)
 28e:	00009b0b          	0x9b0b
 292:	0000                	unimp
 294:	bb09                	j	ffffffa6 <__stack_top+0xefffefa6>
 296:	0002                	c.slli64	zero
 298:	0400                	addi	s0,sp,512
 29a:	009b0b2f          	0x9b0b2f
 29e:	0000                	unimp
 2a0:	0904                	addi	s1,sp,144
 2a2:	0195                	addi	gp,gp,5
 2a4:	0000                	unimp
 2a6:	3004                	fld	fs1,32(s0)
 2a8:	da15                	beqz	a2,1dc <gpio_masked_bit_write+0x34>
 2aa:	0000                	unimp
 2ac:	0800                	addi	s0,sp,16
 2ae:	1309                	addi	t1,t1,-30
 2b0:	04000003          	lb	zero,64(zero) # 40 <_stext+0x28>
 2b4:	0b31                	addi	s6,s6,12
 2b6:	0000009b          	0x9b
 2ba:	000c                	0xc
 2bc:	00036d03          	0x36d03
 2c0:	0400                	addi	s0,sp,512
 2c2:	0332                	slli	t1,t1,0xc
 2c4:	00e6                	slli	ra,ra,0x19
 2c6:	0000                	unimp
 2c8:	00030703          	lb	a4,0(t1) # ffffa000 <__stack_top+0xefff9000>
 2cc:	0400                	addi	s0,sp,512
 2ce:	1035                	c.nop	-19
 2d0:	0000013b          	0x13b
 2d4:	040a                	slli	s0,s0,0x2
 2d6:	0141                	addi	sp,sp,16
 2d8:	0000                	unimp
 2da:	00014c0b          	0x14c0b
 2de:	0c00                	addi	s0,sp,528
 2e0:	0000009b          	0x9b
 2e4:	0d00                	addi	s0,sp,656
 2e6:	0000012f          	0x12f
 2ea:	015c                	addi	a5,sp,132
 2ec:	0000                	unimp
 2ee:	880e                	mv	a6,gp
 2f0:	0000                	unimp
 2f2:	1e00                	addi	s0,sp,816
 2f4:	0f00                	addi	s0,sp,912
 2f6:	023c                	addi	a5,sp,264
 2f8:	0000                	unimp
 2fa:	3604                	fld	fs1,40(a2)
 2fc:	4c14                	lw	a3,24(s0)
 2fe:	0001                	nop
 300:	0300                	addi	s0,sp,384
 302:	034d                	addi	t1,t1,19
 304:	0000                	unimp
 306:	8f05                	sub	a4,a4,s1
 308:	751a                	flw	fa0,164(sp)
 30a:	0000                	unimp
 30c:	0200                	addi	s0,sp,256
 30e:	0410                	addi	a2,sp,512
 310:	0230                	addi	a2,sp,264
 312:	0000                	unimp
 314:	5c10                	lw	a2,56(s0)
 316:	0001                	nop
 318:	0100                	addi	s0,sp,128
 31a:	0d0a                	slli	s10,s10,0x2
 31c:	0305                	addi	t1,t1,1
 31e:	0000                	unimp
 320:	1000                	addi	s0,sp,32
 322:	230d                	jal	844 <_etext+0x60>
 324:	0001                	nop
 326:	9900                	0x9900
 328:	0001                	nop
 32a:	0e00                	addi	s0,sp,784
 32c:	0088                	addi	a0,sp,64
 32e:	0000                	unimp
 330:	001e                	c.slli	zero,0x7
 332:	a211                	j	436 <interrupt_enable+0x42>
 334:	0001                	nop
 336:	0100                	addi	s0,sp,128
 338:	0189120b          	0x189120b
 33c:	0000                	unimp
 33e:	0305                	addi	t1,t1,1
 340:	007c                	addi	a5,sp,12
 342:	1000                	addi	s0,sp,32
 344:	b912                	fsd	ft4,176(sp)
 346:	0001                	nop
 348:	0100                	addi	s0,sp,128
 34a:	06df 05dc 0000      	0x5dc06df
 350:	0030                	addi	a2,sp,8
 352:	0000                	unimp
 354:	9c01                	0x9c01
 356:	01d1                	addi	gp,gp,20
 358:	0000                	unimp
 35a:	0001cd13          	xori	s10,gp,0
 35e:	0100                	addi	s0,sp,128
 360:	23df 009b 0000      	0x9b23df
 366:	9102                	jalr	sp
 368:	006c                	addi	a1,sp,12
 36a:	e014                	fsw	fa3,0(s0)
 36c:	0002                	c.slli64	zero
 36e:	0100                	addi	s0,sp,128
 370:	069d                	addi	a3,a3,7
 372:	05bc                	addi	a5,sp,712
 374:	0000                	unimp
 376:	0020                	addi	s0,sp,8
 378:	0000                	unimp
 37a:	9c01                	0x9c01
 37c:	000001f7          	0x1f7
 380:	00027913          	andi	s2,tp,0
 384:	0100                	addi	s0,sp,128
 386:	1b9d                	addi	s7,s7,-25
 388:	0000009b          	0x9b
 38c:	9102                	jalr	sp
 38e:	006c                	addi	a1,sp,12
 390:	9c12                	add	s8,s8,tp
 392:	0002                	c.slli64	zero
 394:	0100                	addi	s0,sp,128
 396:	0699                	addi	a3,a3,6
 398:	057c                	addi	a5,sp,652
 39a:	0000                	unimp
 39c:	0040                	addi	s0,sp,4
 39e:	0000                	unimp
 3a0:	9c01                	0x9c01
 3a2:	021d                	addi	tp,tp,7
 3a4:	0000                	unimp
 3a6:	0002ad13          	slti	s10,t0,0
 3aa:	0100                	addi	s0,sp,128
 3ac:	2199                	jal	7f2 <_etext+0xe>
 3ae:	021d                	addi	tp,tp,7
 3b0:	0000                	unimp
 3b2:	9102                	jalr	sp
 3b4:	0102006f          	j	203c4 <_etext+0x1fbe0>
 3b8:	f502                	fsw	ft0,168(sp)
 3ba:	0002                	c.slli64	zero
 3bc:	1200                	addi	s0,sp,288
 3be:	0286                	slli	t0,t0,0x1
 3c0:	0000                	unimp
 3c2:	9301                	srli	a4,a4,0x20
 3c4:	4406                	lw	s0,64(sp)
 3c6:	0005                	c.nop	1
 3c8:	3800                	fld	fs0,48(s0)
 3ca:	0000                	unimp
 3cc:	0100                	addi	s0,sp,128
 3ce:	4a9c                	lw	a5,16(a3)
 3d0:	0002                	c.slli64	zero
 3d2:	1500                	addi	s0,sp,672
 3d4:	6176                	flw	ft2,92(sp)
 3d6:	006c                	addi	a1,sp,12
 3d8:	9301                	srli	a4,a4,0x20
 3da:	9b25                	andi	a4,a4,-23
 3dc:	0000                	unimp
 3de:	0200                	addi	s0,sp,256
 3e0:	6c91                	lui	s9,0x4
 3e2:	1200                	addi	s0,sp,288
 3e4:	02cd                	addi	t0,t0,19
 3e6:	0000                	unimp
 3e8:	8e01                	sub	a2,a2,s0
 3ea:	0c06                	slli	s8,s8,0x1
 3ec:	0005                	c.nop	1
 3ee:	3800                	fld	fs0,48(s0)
 3f0:	0000                	unimp
 3f2:	0100                	addi	s0,sp,128
 3f4:	709c                	flw	fa5,32(s1)
 3f6:	0002                	c.slli64	zero
 3f8:	1300                	addi	s0,sp,416
 3fa:	02d6                	slli	t0,t0,0x15
 3fc:	0000                	unimp
 3fe:	8e01                	sub	a2,a2,s0
 400:	9b22                	add	s6,s6,s0
 402:	0000                	unimp
 404:	0200                	addi	s0,sp,256
 406:	6c91                	lui	s9,0x4
 408:	1200                	addi	s0,sp,288
 40a:	02b2                	slli	t0,t0,0xc
 40c:	0000                	unimp
 40e:	8801                	andi	s0,s0,0
 410:	bc06                	fsd	ft1,56(sp)
 412:	0004                	0x4
 414:	5000                	lw	s0,32(s0)
 416:	0000                	unimp
 418:	0100                	addi	s0,sp,128
 41a:	b49c                	fsd	fa5,40(s1)
 41c:	0002                	c.slli64	zero
 41e:	1500                	addi	s0,sp,672
 420:	7269                	lui	tp,0xffffa
 422:	0071                	c.nop	28
 424:	8801                	andi	s0,s0,0
 426:	751c                	flw	fa5,40(a0)
 428:	0000                	unimp
 42a:	0200                	addi	s0,sp,256
 42c:	5c91                	li	s9,-28
 42e:	0002bb13          	sltiu	s6,t0,0
 432:	0100                	addi	s0,sp,128
 434:	2a88                	fld	fa0,16(a3)
 436:	0000009b          	0x9b
 43a:	9102                	jalr	sp
 43c:	1658                	addi	a4,sp,804
 43e:	01f4                	addi	a3,sp,204
 440:	0000                	unimp
 442:	8a01                	andi	a2,a2,0
 444:	680d                	lui	a6,0x3
 446:	0001                	nop
 448:	0200                	addi	s0,sp,256
 44a:	6c91                	lui	s9,0x4
 44c:	1700                	addi	s0,sp,928
 44e:	01e2                	slli	gp,gp,0x18
 450:	0000                	unimp
 452:	8301                	c.srli64	a4
 454:	6812                	flw	fa6,4(sp)
 456:	0001                	nop
 458:	8800                	0x8800
 45a:	0004                	0x4
 45c:	3400                	fld	fs0,40(s0)
 45e:	0000                	unimp
 460:	0100                	addi	s0,sp,128
 462:	ed9c                	fsw	fa5,24(a1)
 464:	0002                	c.slli64	zero
 466:	1500                	addi	s0,sp,672
 468:	7269                	lui	tp,0xffffa
 46a:	0071                	c.nop	28
 46c:	8301                	c.srli64	a4
 46e:	9b34                	0x9b34
 470:	0000                	unimp
 472:	0200                	addi	s0,sp,256
 474:	5c91                	li	s9,-28
 476:	f416                	fsw	ft5,40(sp)
 478:	0001                	nop
 47a:	0100                	addi	s0,sp,128
 47c:	0d84                	addi	s1,sp,720
 47e:	0168                	addi	a0,sp,140
 480:	0000                	unimp
 482:	9102                	jalr	sp
 484:	006c                	addi	a1,sp,12
 486:	fb14                	fsw	fa3,48(a4)
 488:	0001                	nop
 48a:	0100                	addi	s0,sp,128
 48c:	065a                	slli	a2,a2,0x16
 48e:	043c                	addi	a5,sp,520
 490:	0000                	unimp
 492:	004c                	addi	a1,sp,4
 494:	0000                	unimp
 496:	9c01                	0x9c01
 498:	0322                	slli	t1,t1,0x8
 49a:	0000                	unimp
 49c:	00027913          	andi	s2,tp,0
 4a0:	0100                	addi	s0,sp,128
 4a2:	215a                	fld	ft2,400(sp)
 4a4:	0000009b          	0x9b
 4a8:	9102                	jalr	sp
 4aa:	165c                	addi	a5,sp,804
 4ac:	0336                	slli	t1,t1,0xd
 4ae:	0000                	unimp
 4b0:	5c01                	li	s8,-32
 4b2:	0003220b          	0x3220b
 4b6:	0200                	addi	s0,sp,256
 4b8:	6c91                	lui	s9,0x4
 4ba:	0a00                	addi	s0,sp,272
 4bc:	8f04                	0x8f04
 4be:	0000                	unimp
 4c0:	1400                	addi	s0,sp,544
 4c2:	025e                	slli	tp,tp,0x17
 4c4:	0000                	unimp
 4c6:	4f01                	li	t5,0
 4c8:	f406                	fsw	ft1,40(sp)
 4ca:	48000003          	lb	zero,1152(zero) # 480 <interrupt_disable+0x44>
 4ce:	0000                	unimp
 4d0:	0100                	addi	s0,sp,128
 4d2:	789c                	flw	fa5,48(s1)
 4d4:	13000003          	lb	zero,304(zero) # 130 <_stext+0x118>
 4d8:	0279                	addi	tp,tp,30
 4da:	0000                	unimp
 4dc:	4f01                	li	t5,0
 4de:	9b20                	0x9b20
 4e0:	0000                	unimp
 4e2:	0200                	addi	s0,sp,256
 4e4:	5c91                	li	s9,-28
 4e6:	5716                	lw	a4,100(sp)
 4e8:	01000003          	lb	zero,16(zero) # 10 <_start+0x10>
 4ec:	0b51                	addi	s6,s6,20
 4ee:	0322                	slli	t1,t1,0x8
 4f0:	0000                	unimp
 4f2:	9102                	jalr	sp
 4f4:	1668                	addi	a0,sp,812
 4f6:	01d4                	addi	a3,sp,196
 4f8:	0000                	unimp
 4fa:	5201                	li	tp,-32
 4fc:	8f0a                	mv	t5,sp
 4fe:	0000                	unimp
 500:	0200                	addi	s0,sp,256
 502:	6f91                	lui	t6,0x4
 504:	2c18                	fld	fa4,24(s0)
 506:	01000003          	lb	zero,16(zero) # 10 <_start+0x10>
 50a:	2052                	fld	ft0,272(sp)
 50c:	0000008f          	0x8f
 510:	1200                	addi	s0,sp,288
 512:	037e                	slli	t1,t1,0x1f
 514:	0000                	unimp
 516:	4201                	li	tp,0
 518:	8406                	mv	s0,ra
 51a:	70000003          	lb	zero,1792(zero) # 700 <handle_trap+0x3c>
 51e:	0000                	unimp
 520:	0100                	addi	s0,sp,128
 522:	bc9c                	fsd	fa5,56(s1)
 524:	13000003          	lb	zero,304(zero) # 130 <_stext+0x118>
 528:	01cd                	addi	gp,gp,19
 52a:	0000                	unimp
 52c:	4201                	li	tp,0
 52e:	0000a73b          	0xa73b
 532:	0200                	addi	s0,sp,256
 534:	5c91                	li	s9,-28
 536:	6515                	lui	a0,0x5
 538:	6370                	flw	fa2,68(a4)
 53a:	0100                	addi	s0,sp,128
 53c:	6542                	flw	fa0,16(sp)
 53e:	000000a7          	0xa7
 542:	9102                	jalr	sp
 544:	1658                	addi	a4,sp,804
 546:	0279                	addi	tp,tp,30
 548:	0000                	unimp
 54a:	4401                	li	s0,0
 54c:	9b0c                	0x9b0c
 54e:	0000                	unimp
 550:	0200                	addi	s0,sp,256
 552:	6c91                	lui	s9,0x4
 554:	1900                	addi	s0,sp,176
 556:	0390                	addi	a2,sp,448
 558:	0000                	unimp
 55a:	3801                	jal	fffffd6a <__stack_top+0xefffed6a>
 55c:	9b0a                	add	s6,s6,sp
 55e:	0000                	unimp
 560:	4800                	lw	s0,16(s0)
 562:	3c000003          	lb	zero,960(zero) # 3c0 <mach_plic_handler+0x3c>
 566:	0000                	unimp
 568:	0100                	addi	s0,sp,128
 56a:	f59c                	fsw	fa5,40(a1)
 56c:	16000003          	lb	zero,352(zero) # 160 <index_to_mask+0x28>
 570:	020d                	addi	tp,tp,3
 572:	0000                	unimp
 574:	3a01                	jal	fffffe84 <__stack_top+0xefffee84>
 576:	f50c                	fsw	fa1,40(a0)
 578:	02000003          	lb	zero,32(zero) # 20 <_stext+0x8>
 57c:	6c91                	lui	s9,0x4
 57e:	7916                	flw	fs2,100(sp)
 580:	0002                	c.slli64	zero
 582:	0100                	addi	s0,sp,128
 584:	009b0b3b          	0x9b0b3b
 588:	0000                	unimp
 58a:	9102                	jalr	sp
 58c:	0068                	addi	a0,sp,12
 58e:	040a                	slli	s0,s0,0x2
 590:	0000009b          	0x9b
 594:	8214                	0x8214
 596:	0001                	nop
 598:	0100                	addi	s0,sp,128
 59a:	061c                	addi	a5,sp,768
 59c:	02cc                	addi	a1,sp,324
 59e:	0000                	unimp
 5a0:	007c                	addi	a5,sp,12
 5a2:	0000                	unimp
 5a4:	9c01                	0x9c01
 5a6:	0430                	addi	a2,sp,520
 5a8:	0000                	unimp
 5aa:	00027913          	andi	s2,tp,0
 5ae:	0100                	addi	s0,sp,128
 5b0:	221c                	fld	fa5,0(a2)
 5b2:	0000009b          	0x9b
 5b6:	9102                	jalr	sp
 5b8:	165c                	addi	a5,sp,804
 5ba:	0225                	addi	tp,tp,9
 5bc:	0000                	unimp
 5be:	1f01                	addi	t5,t5,-32
 5c0:	f50c                	fsw	fa1,40(a0)
 5c2:	02000003          	lb	zero,32(zero) # 20 <_stext+0x8>
 5c6:	6c91                	lui	s9,0x4
 5c8:	1a00                	addi	s0,sp,304
 5ca:	0178                	addi	a4,sp,140
 5cc:	0000                	unimp
 5ce:	0d01                	addi	s10,s10,0
 5d0:	0000600f          	0x600f
 5d4:	a400                	fsd	fs0,8(s0)
 5d6:	0002                	c.slli64	zero
 5d8:	2800                	fld	fs0,16(s0)
 5da:	0000                	unimp
 5dc:	0100                	addi	s0,sp,128
 5de:	139c                	addi	a5,sp,480
 5e0:	0368                	addi	a0,sp,396
 5e2:	0000                	unimp
 5e4:	0d01                	addi	s10,s10,0
 5e6:	0003f523          	0x3f523
 5ea:	0200                	addi	s0,sp,256
 5ec:	6c91                	lui	s9,0x4
 5ee:	0000                	unimp
 5f0:	0101                	addi	sp,sp,0
 5f2:	0000                	unimp
 5f4:	0004                	0x4
 5f6:	0295                	addi	t0,t0,5
 5f8:	0000                	unimp
 5fa:	0104                	addi	s1,sp,128
 5fc:	0039                	c.nop	14
 5fe:	0000                	unimp
 600:	b20c                	fsd	fa1,32(a2)
 602:	2e000003          	lb	zero,736(zero) # 2e0 <interrupt_complete+0x14>
 606:	0001                	nop
 608:	0c00                	addi	s0,sp,528
 60a:	0006                	c.slli	zero,0x1
 60c:	6800                	flw	fs0,16(s0)
 60e:	0000                	unimp
 610:	3e00                	fld	fs0,56(a2)
 612:	0004                	0x4
 614:	0200                	addi	s0,sp,256
 616:	0601                	addi	a2,a2,0
 618:	00b6                	slli	ra,ra,0xd
 61a:	0000                	unimp
 61c:	0102                	c.slli64	sp
 61e:	b408                	fsd	fa0,40(s0)
 620:	0000                	unimp
 622:	0200                	addi	s0,sp,256
 624:	0502                	c.slli64	a0
 626:	014e                	slli	sp,sp,0x13
 628:	0000                	unimp
 62a:	0202                	c.slli64	tp
 62c:	0000a107          	flw	ft2,0(ra)
 630:	0200                	addi	s0,sp,256
 632:	0504                	addi	s1,sp,640
 634:	0125                	addi	sp,sp,9
 636:	0000                	unimp
 638:	0402                	c.slli64	s0
 63a:	0000e807          	0xe807
 63e:	0200                	addi	s0,sp,256
 640:	0508                	addi	a0,sp,640
 642:	0120                	addi	s0,sp,136
 644:	0000                	unimp
 646:	0802                	c.slli64	a6
 648:	0000e307          	0xe307
 64c:	0300                	addi	s0,sp,384
 64e:	0504                	addi	s1,sp,640
 650:	6e69                	lui	t3,0x1a
 652:	0074                	addi	a3,sp,12
 654:	fb04                	fsw	fs1,48(a4)
 656:	0002                	c.slli64	zero
 658:	0200                	addi	s0,sp,256
 65a:	1ae8                	addi	a0,sp,380
 65c:	0070                	addi	a2,sp,12
 65e:	0000                	unimp
 660:	0402                	c.slli64	s0
 662:	0000ed07          	0xed07
 666:	0400                	addi	s0,sp,512
 668:	02fd                	addi	t0,t0,31
 66a:	0000                	unimp
 66c:	64155203          	lhu	tp,1601(a0) # 5641 <_etext+0x4e5d>
 670:	0000                	unimp
 672:	0400                	addi	s0,sp,512
 674:	03d9                	addi	t2,t2,22
 676:	0000                	unimp
 678:	0d04                	addi	s1,sp,656
 67a:	8f10                	0x8f10
 67c:	0000                	unimp
 67e:	0500                	addi	s0,sp,640
 680:	9504                	0x9504
 682:	0000                	unimp
 684:	0600                	addi	s0,sp,768
 686:	00a5                	addi	ra,ra,9
 688:	0000                	unimp
 68a:	00007707          	0x7707
 68e:	0700                	addi	s0,sp,896
 690:	00000077          	0x77
 694:	0800                	addi	s0,sp,16
 696:	00000083          	lb	ra,0(zero) # 0 <_start>
 69a:	00b5                	addi	ra,ra,13
 69c:	0000                	unimp
 69e:	7009                	c.lui	zero,0xfffe2
 6a0:	0000                	unimp
 6a2:	0100                	addi	s0,sp,128
 6a4:	0a00                	addi	s0,sp,272
 6a6:	03c2                	slli	t2,t2,0x10
 6a8:	0000                	unimp
 6aa:	0e04                	addi	s1,sp,784
 6ac:	a515                	j	cd0 <_etext+0x4ec>
 6ae:	0000                	unimp
 6b0:	0a00                	addi	s0,sp,272
 6b2:	03e6                	slli	t2,t2,0x19
 6b4:	0000                	unimp
 6b6:	0f04                	addi	s1,sp,912
 6b8:	a515                	j	cdc <_etext+0x4f8>
 6ba:	0000                	unimp
 6bc:	0b00                	addi	s0,sp,400
 6be:	03ad                	addi	t2,t2,11
 6c0:	0000                	unimp
 6c2:	0a01                	addi	s4,s4,0
 6c4:	4806                	lw	a6,64(sp)
 6c6:	0006                	c.slli	zero,0x1
 6c8:	2c00                	fld	fs0,24(s0)
 6ca:	0000                	unimp
 6cc:	0100                	addi	s0,sp,128
 6ce:	f29c                	fsw	fa5,32(a3)
 6d0:	0000                	unimp
 6d2:	0c00                	addi	s0,sp,528
 6d4:	03d4                	addi	a3,sp,452
 6d6:	0000                	unimp
 6d8:	0c01                	addi	s8,s8,0
 6da:	5d05                	li	s10,-31
 6dc:	0000                	unimp
 6de:	0d00                	addi	s0,sp,656
 6e0:	0000                	unimp
 6e2:	a80e                	fsd	ft3,16(sp)
 6e4:	01000003          	lb	zero,16(zero) # 10 <_start+0x10>
 6e8:	0d05                	addi	s10,s10,1
 6ea:	060c                	addi	a1,sp,768
 6ec:	0000                	unimp
 6ee:	003c                	addi	a5,sp,8
 6f0:	0000                	unimp
 6f2:	9c01                	0x9c01
 6f4:	bf00                	fsd	fs0,56(a4)
 6f6:	0001                	nop
 6f8:	0400                	addi	s0,sp,512
 6fa:	5400                	lw	s0,40(s0)
 6fc:	04000003          	lb	zero,64(zero) # 40 <_stext+0x28>
 700:	3901                	jal	310 <interrupt_complete+0x44>
 702:	0000                	unimp
 704:	0c00                	addi	s0,sp,528
 706:	044c                	addi	a1,sp,516
 708:	0000                	unimp
 70a:	012e                	slli	sp,sp,0xb
 70c:	0000                	unimp
 70e:	0674                	addi	a3,sp,780
 710:	0000                	unimp
 712:	00fc                	addi	a5,sp,76
 714:	0000                	unimp
 716:	0549                	addi	a0,a0,18
 718:	0000                	unimp
 71a:	0102                	c.slli64	sp
 71c:	b606                	fsd	ft1,296(sp)
 71e:	0000                	unimp
 720:	0200                	addi	s0,sp,256
 722:	0801                	addi	a6,a6,0
 724:	00b4                	addi	a3,sp,72
 726:	0000                	unimp
 728:	0202                	c.slli64	tp
 72a:	4e05                	li	t3,1
 72c:	0001                	nop
 72e:	0200                	addi	s0,sp,256
 730:	0702                	c.slli64	a4
 732:	00a1                	addi	ra,ra,8
 734:	0000                	unimp
 736:	0402                	c.slli64	s0
 738:	2505                	jal	d58 <_etext+0x574>
 73a:	0001                	nop
 73c:	0300                	addi	s0,sp,384
 73e:	00c2                	slli	ra,ra,0x10
 740:	0000                	unimp
 742:	4f02                	lw	t5,0(sp)
 744:	5419                	li	s0,-26
 746:	0000                	unimp
 748:	0200                	addi	s0,sp,256
 74a:	0704                	addi	s1,sp,896
 74c:	00e8                	addi	a0,sp,76
 74e:	0000                	unimp
 750:	0802                	c.slli64	a6
 752:	2005                	jal	772 <main+0x2>
 754:	0001                	nop
 756:	0200                	addi	s0,sp,256
 758:	0708                	addi	a0,sp,896
 75a:	000000e3          	beqz	zero,f5a <_etext+0x776>
 75e:	0404                	addi	s1,sp,512
 760:	6905                	lui	s2,0x1
 762:	746e                	flw	fs0,248(sp)
 764:	0300                	addi	s0,sp,384
 766:	000002fb          	0x2fb
 76a:	e802                	fsw	ft0,16(sp)
 76c:	7c1a                	flw	fs8,164(sp)
 76e:	0000                	unimp
 770:	0200                	addi	s0,sp,256
 772:	0704                	addi	s1,sp,896
 774:	00ed                	addi	ra,ra,27
 776:	0000                	unimp
 778:	0000c403          	lbu	s0,0(ra)
 77c:	0300                	addi	s0,sp,384
 77e:	1430                	addi	a2,sp,552
 780:	0048                	addi	a0,sp,4
 782:	0000                	unimp
 784:	0002fd03          	0x2fd03
 788:	0300                	addi	s0,sp,384
 78a:	1552                	slli	a0,a0,0x34
 78c:	0070                	addi	a2,sp,12
 78e:	0000                	unimp
 790:	0003d903          	lhu	s2,0(t2)
 794:	0400                	addi	s0,sp,512
 796:	100d                	c.nop	-29
 798:	000000a7          	0xa7
 79c:	0405                	addi	s0,s0,1
 79e:	00ad                	addi	ra,ra,11
 7a0:	0000                	unimp
 7a2:	bd06                	fsd	ft1,184(sp)
 7a4:	0000                	unimp
 7a6:	0700                	addi	s0,sp,896
 7a8:	0000008f          	0x8f
 7ac:	00008f07          	0x8f07
 7b0:	0000                	unimp
 7b2:	9b08                	0x9b08
 7b4:	0000                	unimp
 7b6:	cd00                	sw	s0,24(a0)
 7b8:	0000                	unimp
 7ba:	0900                	addi	s0,sp,144
 7bc:	007c                	addi	a5,sp,12
 7be:	0000                	unimp
 7c0:	0001                	nop
 7c2:	c20a                	sw	sp,4(sp)
 7c4:	04000003          	lb	zero,64(zero) # 40 <_stext+0x28>
 7c8:	150e                	slli	a0,a0,0x23
 7ca:	00bd                	addi	ra,ra,15
 7cc:	0000                	unimp
 7ce:	e60a                	fsw	ft2,12(sp)
 7d0:	04000003          	lb	zero,64(zero) # 40 <_stext+0x28>
 7d4:	00bd150f          	0xbd150f
 7d8:	0000                	unimp
 7da:	0000cd0b          	0xcd0b
 7de:	0100                	addi	s0,sp,128
 7e0:	0e02                	c.slli64	t3
 7e2:	0305                	addi	t1,t1,1
 7e4:	026c                	addi	a1,sp,268
 7e6:	1000                	addi	s0,sp,32
 7e8:	0000d90b          	0xd90b
 7ec:	0100                	addi	s0,sp,128
 7ee:	03050e03          	lb	t3,48(a0)
 7f2:	0274                	addi	a3,sp,268
 7f4:	1000                	addi	s0,sp,32
 7f6:	1a0c                	addi	a1,sp,304
 7f8:	0004                	0x4
 7fa:	0100                	addi	s0,sp,128
 7fc:	0b10                	addi	a2,sp,400
 7fe:	0000008f          	0x8f
 802:	06c4                	addi	s1,sp,836
 804:	0000                	unimp
 806:	00ac                	addi	a1,sp,72
 808:	0000                	unimp
 80a:	9c01                	0x9c01
 80c:	0158                	addi	a4,sp,132
 80e:	0000                	unimp
 810:	260d                	jal	b32 <_etext+0x34e>
 812:	0004                	0x4
 814:	0100                	addi	s0,sp,128
 816:	2110                	fld	fa2,0(a0)
 818:	0000008f          	0x8f
 81c:	9102                	jalr	sp
 81e:	0e5c                	addi	a5,sp,788
 820:	7065                	c.lui	zero,0xffff9
 822:	10010063          	beqz	sp,922 <_etext+0x13e>
 826:	00008f33          	add	t5,ra,zero
 82a:	0200                	addi	s0,sp,256
 82c:	5891                	li	a7,-28
 82e:	00045c0f          	0x45c0f
 832:	0100                	addi	s0,sp,128
 834:	0f12                	slli	t5,t5,0x4
 836:	007c                	addi	a5,sp,12
 838:	0000                	unimp
 83a:	9102                	jalr	sp
 83c:	0f6c                	addi	a1,sp,924
 83e:	040d                	addi	s0,s0,3
 840:	0000                	unimp
 842:	1301                	addi	t1,t1,-32
 844:	0000830b          	0x830b
 848:	0200                	addi	s0,sp,256
 84a:	6891                	lui	a7,0x4
 84c:	1000                	addi	s0,sp,32
 84e:	043c                	addi	a5,sp,520
 850:	0000                	unimp
 852:	0b01                	addi	s6,s6,0
 854:	ac06                	fsd	ft1,24(sp)
 856:	0006                	c.slli	zero,0x1
 858:	1800                	addi	s0,sp,48
 85a:	0000                	unimp
 85c:	0100                	addi	s0,sp,128
 85e:	8d9c                	0x8d9c
 860:	0001                	nop
 862:	0d00                	addi	s0,sp,656
 864:	0426                	slli	s0,s0,0x9
 866:	0000                	unimp
 868:	0b01                	addi	s6,s6,0
 86a:	8f38                	0x8f38
 86c:	0000                	unimp
 86e:	0200                	addi	s0,sp,256
 870:	6c91                	lui	s9,0x4
 872:	650e                	flw	fa0,192(sp)
 874:	6370                	flw	fa2,68(a4)
 876:	0100                	addi	s0,sp,128
 878:	008f620b          	0x8f620b
 87c:	0000                	unimp
 87e:	9102                	jalr	sp
 880:	0068                	addi	a0,sp,12
 882:	fd11                	bnez	a0,79e <main+0x2e>
 884:	01000003          	lb	zero,16(zero) # 10 <_start+0x10>
 888:	0e05                	addi	t3,t3,1
 88a:	007c                	addi	a5,sp,12
 88c:	0000                	unimp
 88e:	0674                	addi	a3,sp,780
 890:	0000                	unimp
 892:	0038                	addi	a4,sp,8
 894:	0000                	unimp
 896:	9c01                	0x9c01
 898:	6e0e                	flw	ft8,192(sp)
 89a:	6d75                	lui	s10,0x1d
 89c:	0100                	addi	s0,sp,128
 89e:	2b05                	jal	dce <_etext+0x5ea>
 8a0:	007c                	addi	a5,sp,12
 8a2:	0000                	unimp
 8a4:	9102                	jalr	sp
 8a6:	0f5c                	addi	a5,sp,916
 8a8:	042d                	addi	s0,s0,11
 8aa:	0000                	unimp
 8ac:	0701                	addi	a4,a4,0
 8ae:	00007c0f          	0x7c0f
 8b2:	0200                	addi	s0,sp,256
 8b4:	6c91                	lui	s9,0x4
 8b6:	0000                	unimp
 8b8:	00d5                	addi	ra,ra,21
 8ba:	0000                	unimp
 8bc:	0004                	0x4
 8be:	00000463          	beqz	zero,8c6 <_etext+0xe2>
 8c2:	0104                	addi	s1,sp,128
 8c4:	0039                	c.nop	14
 8c6:	0000                	unimp
 8c8:	650c                	flw	fa1,8(a0)
 8ca:	0004                	0x4
 8cc:	2e00                	fld	fs0,24(a2)
 8ce:	0001                	nop
 8d0:	7000                	flw	fs0,32(s0)
 8d2:	74000007          	0x74000007
 8d6:	0000                	unimp
 8d8:	b800                	fsd	fs0,48(s0)
 8da:	0006                	c.slli	zero,0x1
 8dc:	0200                	addi	s0,sp,256
 8de:	0601                	addi	a2,a2,0
 8e0:	00b6                	slli	ra,ra,0xd
 8e2:	0000                	unimp
 8e4:	0102                	c.slli64	sp
 8e6:	b408                	fsd	fa0,40(s0)
 8e8:	0000                	unimp
 8ea:	0200                	addi	s0,sp,256
 8ec:	0502                	c.slli64	a0
 8ee:	014e                	slli	sp,sp,0x13
 8f0:	0000                	unimp
 8f2:	0202                	c.slli64	tp
 8f4:	0000a107          	flw	ft2,0(ra)
 8f8:	0200                	addi	s0,sp,256
 8fa:	0504                	addi	s1,sp,640
 8fc:	0125                	addi	sp,sp,9
 8fe:	0000                	unimp
 900:	0000c203          	lbu	tp,0(ra)
 904:	0200                	addi	s0,sp,256
 906:	0054194f          	fnmadd.s	fs2,fs0,ft5,ft0,rtz
 90a:	0000                	unimp
 90c:	0402                	c.slli64	s0
 90e:	0000e807          	0xe807
 912:	0200                	addi	s0,sp,256
 914:	0508                	addi	a0,sp,640
 916:	0120                	addi	s0,sp,136
 918:	0000                	unimp
 91a:	0802                	c.slli64	a6
 91c:	0000e307          	0xe307
 920:	0400                	addi	s0,sp,512
 922:	0504                	addi	s1,sp,640
 924:	6e69                	lui	t3,0x1a
 926:	0074                	addi	a3,sp,12
 928:	0402                	c.slli64	s0
 92a:	0000ed07          	0xed07
 92e:	0300                	addi	s0,sp,384
 930:	00c4                	addi	s1,sp,68
 932:	0000                	unimp
 934:	48143003          	0x48143003
 938:	0000                	unimp
 93a:	0500                	addi	s0,sp,640
 93c:	03d4                	addi	a3,sp,452
 93e:	0000                	unimp
 940:	2d01                	jal	f50 <_etext+0x76c>
 942:	6905                	lui	s2,0x1
 944:	0000                	unimp
 946:	7000                	flw	fs0,32(s0)
 948:	74000007          	0x74000007
 94c:	0000                	unimp
 94e:	0100                	addi	s0,sp,128
 950:	d29c                	sw	a5,32(a3)
 952:	0000                	unimp
 954:	0600                	addi	s0,sp,768
 956:	0485                	addi	s1,s1,1
 958:	0000                	unimp
 95a:	2e01                	jal	c6a <_etext+0x486>
 95c:	7018                	flw	fa4,32(s0)
 95e:	0000                	unimp
 960:	0700                	addi	s0,sp,896
 962:	0069                	c.nop	26
 964:	2f01                	jal	1074 <_etext+0x890>
 966:	6906                	flw	fs2,64(sp)
 968:	0000                	unimp
 96a:	0800                	addi	s0,sp,16
 96c:	048c                	addi	a1,sp,576
 96e:	0000                	unimp
 970:	3101                	jal	570 <plic_enable_interrupt+0x2c>
 972:	d20c                	sw	a1,32(a2)
 974:	0000                	unimp
 976:	0200                	addi	s0,sp,256
 978:	6c91                	lui	s9,0x4
 97a:	9608                	0x9608
 97c:	0004                	0x4
 97e:	0100                	addi	s0,sp,128
 980:	0c35                	addi	s8,s8,13
 982:	00d2                	slli	ra,ra,0x14
 984:	0000                	unimp
 986:	9102                	jalr	sp
 988:	0068                	addi	a0,sp,12
 98a:	0409                	addi	s0,s0,2
 98c:	00000077          	0x77
 990:	00              	Address 0x0000000000000990 is out of bounds.


Disassembly of section .debug_abbrev:

00000000 <.debug_abbrev>:
   0:	1101                	addi	sp,sp,-32
   2:	2501                	jal	602 <configure_interrupt+0x26>
   4:	130e                	slli	t1,t1,0x23
   6:	1b0e030b          	0x1b0e030b
   a:	110e                	slli	sp,sp,0x23
   c:	1201                	addi	tp,tp,-32
   e:	1006                	c.slli	zero,0x21
  10:	02000017          	auipc	zero,0x2000
  14:	0024                	addi	s1,sp,8
  16:	0b3e0b0b          	0xb3e0b0b
  1a:	00000e03          	lb	t3,0(zero) # 0 <_start>
  1e:	03001603          	lh	a2,48(zero) # 30 <_stext+0x18>
  22:	3a0e                	fld	fs4,224(sp)
  24:	390b3b0b          	0x390b3b0b
  28:	0013490b          	0x13490b
  2c:	0400                	addi	s0,sp,512
  2e:	0024                	addi	s1,sp,8
  30:	0b3e0b0b          	0xb3e0b0b
  34:	00000803          	lb	a6,0(zero) # 0 <_start>
  38:	2605                	jal	358 <interrupt_claim_request+0x10>
  3a:	4900                	lw	s0,16(a0)
  3c:	06000013          	li	zero,96
  40:	012e                	slli	sp,sp,0xb
  42:	0e03193f 0b3b0b3a 	0xb3b0b3a0e03193f
  4a:	0b39                	addi	s6,s6,14
  4c:	01111927          	0x1111927
  50:	0612                	slli	a2,a2,0x4
  52:	1840                	addi	s0,sp,52
  54:	4296                	lw	t0,68(sp)
  56:	0119                	addi	sp,sp,6
  58:	07000013          	li	zero,112
  5c:	0005                	c.nop	1
  5e:	0b3a0803          	lb	a6,179(s4)
  62:	0b390b3b          	0xb390b3b
  66:	1349                	addi	t1,t1,-14
  68:	1802                	slli	a6,a6,0x20
  6a:	0000                	unimp
  6c:	2e08                	fld	fa0,24(a2)
  6e:	0301                	addi	t1,t1,0
  70:	3a0e                	fld	fs4,224(sp)
  72:	390b3b0b          	0x390b3b0b
  76:	1119270b          	0x1119270b
  7a:	1201                	addi	tp,tp,-32
  7c:	4006                	0x4006
  7e:	9618                	0x9618
  80:	1942                	slli	s2,s2,0x30
  82:	1301                	addi	t1,t1,-32
  84:	0000                	unimp
  86:	0509                	addi	a0,a0,2
  88:	0300                	addi	s0,sp,384
  8a:	3a0e                	fld	fs4,224(sp)
  8c:	390b3b0b          	0x390b3b0b
  90:	0213490b          	0x213490b
  94:	0018                	0x18
  96:	0a00                	addi	s0,sp,272
  98:	0034                	addi	a3,sp,8
  9a:	0b3a0e03          	lb	t3,179(s4)
  9e:	0b390b3b          	0xb390b3b
  a2:	1349                	addi	t1,t1,-14
  a4:	1802                	slli	a6,a6,0x20
  a6:	0000                	unimp
  a8:	3f012e0b          	0x3f012e0b
  ac:	0319                	addi	t1,t1,6
  ae:	3a0e                	fld	fs4,224(sp)
  b0:	390b3b0b          	0x390b3b0b
  b4:	1119270b          	0x1119270b
  b8:	1201                	addi	tp,tp,-32
  ba:	4006                	0x4006
  bc:	9718                	0x9718
  be:	1942                	slli	s2,s2,0x30
  c0:	1301                	addi	t1,t1,-32
  c2:	0000                	unimp
  c4:	2e0c                	fld	fa1,24(a2)
  c6:	0301                	addi	t1,t1,0
  c8:	3a0e                	fld	fs4,224(sp)
  ca:	390b3b0b          	0x390b3b0b
  ce:	4919270b          	0x4919270b
  d2:	12011113          	0x12011113
  d6:	4006                	0x4006
  d8:	9718                	0x9718
  da:	1942                	slli	s2,s2,0x30
  dc:	0000                	unimp
  de:	0100                	addi	s0,sp,128
  e0:	0111                	addi	sp,sp,4
  e2:	0e25                	addi	t3,t3,9
  e4:	0e030b13          	addi	s6,t1,224
  e8:	01110e1b          	0x1110e1b
  ec:	0612                	slli	a2,a2,0x4
  ee:	1710                	addi	a2,sp,928
  f0:	0000                	unimp
  f2:	2402                	fld	fs0,0(sp)
  f4:	0b00                	addi	s0,sp,400
  f6:	030b3e0b          	0x30b3e0b
  fa:	000e                	c.slli	zero,0x3
  fc:	0300                	addi	s0,sp,384
  fe:	0016                	c.slli	zero,0x5
 100:	0b3a0e03          	lb	t3,179(s4)
 104:	0b390b3b          	0xb390b3b
 108:	1349                	addi	t1,t1,-14
 10a:	0000                	unimp
 10c:	2404                	fld	fs1,8(s0)
 10e:	0b00                	addi	s0,sp,400
 110:	030b3e0b          	0x30b3e0b
 114:	0008                	0x8
 116:	0500                	addi	s0,sp,640
 118:	0104                	addi	s1,sp,128
 11a:	0b3e                	slli	s6,s6,0xf
 11c:	13490b0b          	0x13490b0b
 120:	0b3a                	slli	s6,s6,0xe
 122:	0b390b3b          	0xb390b3b
 126:	1301                	addi	t1,t1,-32
 128:	0000                	unimp
 12a:	2806                	fld	fa6,64(sp)
 12c:	0300                	addi	s0,sp,384
 12e:	1c0e                	slli	s8,s8,0x23
 130:	0700000b          	0x700000b
 134:	0b0b0113          	addi	sp,s6,176
 138:	0b3a                	slli	s6,s6,0xe
 13a:	0b390b3b          	0xb390b3b
 13e:	1301                	addi	t1,t1,-32
 140:	0000                	unimp
 142:	0d08                	addi	a0,sp,656
 144:	0300                	addi	s0,sp,384
 146:	3a08                	fld	fa0,48(a2)
 148:	390b3b0b          	0x390b3b0b
 14c:	3813490b          	0x3813490b
 150:	0900000b          	0x900000b
 154:	000d                	c.nop	3
 156:	0b3a0e03          	lb	t3,179(s4)
 15a:	0b390b3b          	0xb390b3b
 15e:	1349                	addi	t1,t1,-14
 160:	0b38                	addi	a4,sp,408
 162:	0000                	unimp
 164:	0f0a                	slli	t5,t5,0x2
 166:	0b00                	addi	s0,sp,400
 168:	0013490b          	0x13490b
 16c:	0b00                	addi	s0,sp,400
 16e:	0115                	addi	sp,sp,5
 170:	13011927          	0x13011927
 174:	0000                	unimp
 176:	050c                	addi	a1,sp,640
 178:	4900                	lw	s0,16(a0)
 17a:	0d000013          	li	zero,208
 17e:	0101                	addi	sp,sp,0
 180:	1349                	addi	t1,t1,-14
 182:	1301                	addi	t1,t1,-32
 184:	0000                	unimp
 186:	210e                	fld	ft2,192(sp)
 188:	4900                	lw	s0,16(a0)
 18a:	000b2f13          	slti	t5,s6,0
 18e:	0f00                	addi	s0,sp,912
 190:	0034                	addi	a3,sp,8
 192:	0b3a0e03          	lb	t3,179(s4)
 196:	0b390b3b          	0xb390b3b
 19a:	1349                	addi	t1,t1,-14
 19c:	193c193f 34100000 	0x34100000193c193f
 1a4:	4700                	lw	s0,8(a4)
 1a6:	3b0b3a13          	sltiu	s4,s6,944
 1aa:	020b390b          	0x20b390b
 1ae:	0018                	0x18
 1b0:	1100                	addi	s0,sp,160
 1b2:	0034                	addi	a3,sp,8
 1b4:	0b3a0e03          	lb	t3,179(s4)
 1b8:	0b390b3b          	0xb390b3b
 1bc:	1349                	addi	t1,t1,-14
 1be:	1802193f 2e120000 	0x2e1200001802193f
 1c6:	3f01                	jal	d6 <_stext+0xbe>
 1c8:	0319                	addi	t1,t1,6
 1ca:	3a0e                	fld	fs4,224(sp)
 1cc:	390b3b0b          	0x390b3b0b
 1d0:	1119270b          	0x1119270b
 1d4:	1201                	addi	tp,tp,-32
 1d6:	4006                	0x4006
 1d8:	9618                	0x9618
 1da:	1942                	slli	s2,s2,0x30
 1dc:	1301                	addi	t1,t1,-32
 1de:	0000                	unimp
 1e0:	03000513          	li	a0,48
 1e4:	3a0e                	fld	fs4,224(sp)
 1e6:	390b3b0b          	0x390b3b0b
 1ea:	0213490b          	0x213490b
 1ee:	0018                	0x18
 1f0:	1400                	addi	s0,sp,544
 1f2:	012e                	slli	sp,sp,0xb
 1f4:	0e03193f 0b3b0b3a 	0xb3b0b3a0e03193f
 1fc:	0b39                	addi	s6,s6,14
 1fe:	01111927          	0x1111927
 202:	0612                	slli	a2,a2,0x4
 204:	1840                	addi	s0,sp,52
 206:	01194297          	auipc	t0,0x1194
 20a:	15000013          	li	zero,336
 20e:	0005                	c.nop	1
 210:	0b3a0803          	lb	a6,179(s4)
 214:	0b390b3b          	0xb390b3b
 218:	1349                	addi	t1,t1,-14
 21a:	1802                	slli	a6,a6,0x20
 21c:	0000                	unimp
 21e:	3416                	fld	fs0,352(sp)
 220:	0300                	addi	s0,sp,384
 222:	3a0e                	fld	fs4,224(sp)
 224:	390b3b0b          	0x390b3b0b
 228:	0213490b          	0x213490b
 22c:	0018                	0x18
 22e:	1700                	addi	s0,sp,928
 230:	012e                	slli	sp,sp,0xb
 232:	0b3a0e03          	lb	t3,179(s4)
 236:	0b390b3b          	0xb390b3b
 23a:	13491927          	0x13491927
 23e:	0111                	addi	sp,sp,4
 240:	0612                	slli	a2,a2,0x4
 242:	1840                	addi	s0,sp,52
 244:	01194297          	auipc	t0,0x1194
 248:	18000013          	li	zero,384
 24c:	0034                	addi	a3,sp,8
 24e:	0b3a0e03          	lb	t3,179(s4)
 252:	0b390b3b          	0xb390b3b
 256:	1349                	addi	t1,t1,-14
 258:	0000                	unimp
 25a:	2e19                	jal	570 <plic_enable_interrupt+0x2c>
 25c:	3f01                	jal	16c <mem_write32+0x8>
 25e:	0319                	addi	t1,t1,6
 260:	3a0e                	fld	fs4,224(sp)
 262:	390b3b0b          	0x390b3b0b
 266:	4919270b          	0x4919270b
 26a:	12011113          	0x12011113
 26e:	4006                	0x4006
 270:	9718                	0x9718
 272:	1942                	slli	s2,s2,0x30
 274:	1301                	addi	t1,t1,-32
 276:	0000                	unimp
 278:	2e1a                	fld	ft8,384(sp)
 27a:	3f01                	jal	18a <mem_write32+0x26>
 27c:	0319                	addi	t1,t1,6
 27e:	3a0e                	fld	fs4,224(sp)
 280:	390b3b0b          	0x390b3b0b
 284:	4919270b          	0x4919270b
 288:	12011113          	0x12011113
 28c:	4006                	0x4006
 28e:	9718                	0x9718
 290:	1942                	slli	s2,s2,0x30
 292:	0000                	unimp
 294:	0100                	addi	s0,sp,128
 296:	0111                	addi	sp,sp,4
 298:	0e25                	addi	t3,t3,9
 29a:	0e030b13          	addi	s6,t1,224
 29e:	01110e1b          	0x1110e1b
 2a2:	0612                	slli	a2,a2,0x4
 2a4:	1710                	addi	a2,sp,928
 2a6:	0000                	unimp
 2a8:	2402                	fld	fs0,0(sp)
 2aa:	0b00                	addi	s0,sp,400
 2ac:	030b3e0b          	0x30b3e0b
 2b0:	000e                	c.slli	zero,0x3
 2b2:	0300                	addi	s0,sp,384
 2b4:	0024                	addi	s1,sp,8
 2b6:	0b3e0b0b          	0xb3e0b0b
 2ba:	00000803          	lb	a6,0(zero) # 0 <_start>
 2be:	1604                	addi	s1,sp,800
 2c0:	0300                	addi	s0,sp,384
 2c2:	3a0e                	fld	fs4,224(sp)
 2c4:	390b3b0b          	0x390b3b0b
 2c8:	0013490b          	0x13490b
 2cc:	0500                	addi	s0,sp,640
 2ce:	0b0b000f          	0xb0b000f
 2d2:	1349                	addi	t1,t1,-14
 2d4:	0000                	unimp
 2d6:	1506                	slli	a0,a0,0x21
 2d8:	2701                	jal	9d8 <_etext+0x1f4>
 2da:	0119                	addi	sp,sp,6
 2dc:	07000013          	li	zero,112
 2e0:	0005                	c.nop	1
 2e2:	1349                	addi	t1,t1,-14
 2e4:	0000                	unimp
 2e6:	0108                	addi	a0,sp,128
 2e8:	4901                	li	s2,0
 2ea:	00130113          	addi	sp,t1,1
 2ee:	0900                	addi	s0,sp,144
 2f0:	0021                	c.nop	8
 2f2:	1349                	addi	t1,t1,-14
 2f4:	00000b2f          	0xb2f
 2f8:	340a                	fld	fs0,160(sp)
 2fa:	0300                	addi	s0,sp,384
 2fc:	3a0e                	fld	fs4,224(sp)
 2fe:	390b3b0b          	0x390b3b0b
 302:	3f13490b          	0x3f13490b
 306:	3c19                	jal	fffffd1c <__stack_top+0xefffed1c>
 308:	0019                	c.nop	6
 30a:	0b00                	addi	s0,sp,400
 30c:	012e                	slli	sp,sp,0xb
 30e:	0e03193f 0b3b0b3a 	0xb3b0b3a0e03193f
 316:	0b39                	addi	s6,s6,14
 318:	0111                	addi	sp,sp,4
 31a:	0612                	slli	a2,a2,0x4
 31c:	1840                	addi	s0,sp,52
 31e:	4296                	lw	t0,68(sp)
 320:	0119                	addi	sp,sp,6
 322:	0c000013          	li	zero,192
 326:	012e                	slli	sp,sp,0xb
 328:	0e03193f 0b3b0b3a 	0xb3b0b3a0e03193f
 330:	0b39                	addi	s6,s6,14
 332:	1349                	addi	t1,t1,-14
 334:	193c                	addi	a5,sp,184
 336:	0000                	unimp
 338:	180d                	addi	a6,a6,-29
 33a:	0000                	unimp
 33c:	0e00                	addi	s0,sp,784
 33e:	002e                	c.slli	zero,0xb
 340:	0b3a0e03          	lb	t3,179(s4)
 344:	0b390b3b          	0xb390b3b
 348:	0111                	addi	sp,sp,4
 34a:	0612                	slli	a2,a2,0x4
 34c:	1840                	addi	s0,sp,52
 34e:	00194297          	auipc	t0,0x194
 352:	0000                	unimp
 354:	1101                	addi	sp,sp,-32
 356:	2501                	jal	956 <_etext+0x172>
 358:	130e                	slli	t1,t1,0x23
 35a:	1b0e030b          	0x1b0e030b
 35e:	110e                	slli	sp,sp,0x23
 360:	1201                	addi	tp,tp,-32
 362:	1006                	c.slli	zero,0x21
 364:	02000017          	auipc	zero,0x2000
 368:	0024                	addi	s1,sp,8
 36a:	0b3e0b0b          	0xb3e0b0b
 36e:	00000e03          	lb	t3,0(zero) # 0 <_start>
 372:	03001603          	lh	a2,48(zero) # 30 <_stext+0x18>
 376:	3a0e                	fld	fs4,224(sp)
 378:	390b3b0b          	0x390b3b0b
 37c:	0013490b          	0x13490b
 380:	0400                	addi	s0,sp,512
 382:	0024                	addi	s1,sp,8
 384:	0b3e0b0b          	0xb3e0b0b
 388:	00000803          	lb	a6,0(zero) # 0 <_start>
 38c:	0f05                	addi	t5,t5,1
 38e:	0b00                	addi	s0,sp,400
 390:	0013490b          	0x13490b
 394:	0600                	addi	s0,sp,768
 396:	0115                	addi	sp,sp,5
 398:	13011927          	0x13011927
 39c:	0000                	unimp
 39e:	49000507          	0x49000507
 3a2:	08000013          	li	zero,128
 3a6:	0101                	addi	sp,sp,0
 3a8:	1349                	addi	t1,t1,-14
 3aa:	1301                	addi	t1,t1,-32
 3ac:	0000                	unimp
 3ae:	2109                	jal	7b0 <main+0x40>
 3b0:	4900                	lw	s0,16(a0)
 3b2:	000b2f13          	slti	t5,s6,0
 3b6:	0a00                	addi	s0,sp,272
 3b8:	0034                	addi	a3,sp,8
 3ba:	0b3a0e03          	lb	t3,179(s4)
 3be:	0b390b3b          	0xb390b3b
 3c2:	1349                	addi	t1,t1,-14
 3c4:	193c193f 340b0000 	0x340b0000193c193f
 3cc:	4700                	lw	s0,8(a4)
 3ce:	3b0b3a13          	sltiu	s4,s6,944
 3d2:	020b390b          	0x20b390b
 3d6:	0018                	0x18
 3d8:	0c00                	addi	s0,sp,528
 3da:	012e                	slli	sp,sp,0xb
 3dc:	0e03193f 0b3b0b3a 	0xb3b0b3a0e03193f
 3e4:	0b39                	addi	s6,s6,14
 3e6:	13491927          	0x13491927
 3ea:	0111                	addi	sp,sp,4
 3ec:	0612                	slli	a2,a2,0x4
 3ee:	1840                	addi	s0,sp,52
 3f0:	4296                	lw	t0,68(sp)
 3f2:	0119                	addi	sp,sp,6
 3f4:	0d000013          	li	zero,208
 3f8:	0005                	c.nop	1
 3fa:	0b3a0e03          	lb	t3,179(s4)
 3fe:	0b390b3b          	0xb390b3b
 402:	1349                	addi	t1,t1,-14
 404:	1802                	slli	a6,a6,0x20
 406:	0000                	unimp
 408:	050e                	slli	a0,a0,0x3
 40a:	0300                	addi	s0,sp,384
 40c:	3a08                	fld	fa0,48(a2)
 40e:	390b3b0b          	0x390b3b0b
 412:	0213490b          	0x213490b
 416:	0018                	0x18
 418:	0f00                	addi	s0,sp,912
 41a:	0034                	addi	a3,sp,8
 41c:	0b3a0e03          	lb	t3,179(s4)
 420:	0b390b3b          	0xb390b3b
 424:	1349                	addi	t1,t1,-14
 426:	1802                	slli	a6,a6,0x20
 428:	0000                	unimp
 42a:	2e10                	fld	fa2,24(a2)
 42c:	3f01                	jal	33c <interrupt_complete+0x70>
 42e:	0319                	addi	t1,t1,6
 430:	3a0e                	fld	fs4,224(sp)
 432:	390b3b0b          	0x390b3b0b
 436:	1119270b          	0x1119270b
 43a:	1201                	addi	tp,tp,-32
 43c:	4006                	0x4006
 43e:	9718                	0x9718
 440:	1942                	slli	s2,s2,0x30
 442:	1301                	addi	t1,t1,-32
 444:	0000                	unimp
 446:	2e11                	jal	75a <handle_trap+0x96>
 448:	3f01                	jal	358 <interrupt_claim_request+0x10>
 44a:	0319                	addi	t1,t1,6
 44c:	3a0e                	fld	fs4,224(sp)
 44e:	390b3b0b          	0x390b3b0b
 452:	4919270b          	0x4919270b
 456:	12011113          	0x12011113
 45a:	4006                	0x4006
 45c:	9718                	0x9718
 45e:	1942                	slli	s2,s2,0x30
 460:	0000                	unimp
 462:	0100                	addi	s0,sp,128
 464:	0111                	addi	sp,sp,4
 466:	0e25                	addi	t3,t3,9
 468:	0e030b13          	addi	s6,t1,224
 46c:	01110e1b          	0x1110e1b
 470:	0612                	slli	a2,a2,0x4
 472:	1710                	addi	a2,sp,928
 474:	0000                	unimp
 476:	2402                	fld	fs0,0(sp)
 478:	0b00                	addi	s0,sp,400
 47a:	030b3e0b          	0x30b3e0b
 47e:	000e                	c.slli	zero,0x3
 480:	0300                	addi	s0,sp,384
 482:	0016                	c.slli	zero,0x5
 484:	0b3a0e03          	lb	t3,179(s4)
 488:	0b390b3b          	0xb390b3b
 48c:	1349                	addi	t1,t1,-14
 48e:	0000                	unimp
 490:	2404                	fld	fs1,8(s0)
 492:	0b00                	addi	s0,sp,400
 494:	030b3e0b          	0x30b3e0b
 498:	0008                	0x8
 49a:	0500                	addi	s0,sp,640
 49c:	012e                	slli	sp,sp,0xb
 49e:	0e03193f 0b3b0b3a 	0xb3b0b3a0e03193f
 4a6:	0b39                	addi	s6,s6,14
 4a8:	13491927          	0x13491927
 4ac:	0111                	addi	sp,sp,4
 4ae:	0612                	slli	a2,a2,0x4
 4b0:	1840                	addi	s0,sp,52
 4b2:	4296                	lw	t0,68(sp)
 4b4:	0119                	addi	sp,sp,6
 4b6:	06000013          	li	zero,96
 4ba:	0034                	addi	a3,sp,8
 4bc:	0b3a0e03          	lb	t3,179(s4)
 4c0:	0b390b3b          	0xb390b3b
 4c4:	1349                	addi	t1,t1,-14
 4c6:	0000                	unimp
 4c8:	03003407          	fld	fs0,48(zero) # 30 <_stext+0x18>
 4cc:	3a08                	fld	fa0,48(a2)
 4ce:	390b3b0b          	0x390b3b0b
 4d2:	0013490b          	0x13490b
 4d6:	0800                	addi	s0,sp,16
 4d8:	0034                	addi	a3,sp,8
 4da:	0b3a0e03          	lb	t3,179(s4)
 4de:	0b390b3b          	0xb390b3b
 4e2:	1349                	addi	t1,t1,-14
 4e4:	1802                	slli	a6,a6,0x20
 4e6:	0000                	unimp
 4e8:	0f09                	addi	t5,t5,2
 4ea:	0b00                	addi	s0,sp,400
 4ec:	0013490b          	0x13490b
 4f0:	0000                	unimp

Disassembly of section .debug_aranges:

00000000 <.debug_aranges>:
   0:	001c                	0x1c
   2:	0000                	unimp
   4:	0002                	c.slli64	zero
   6:	0000                	unimp
   8:	0000                	unimp
   a:	0004                	0x4
   c:	0000                	unimp
   e:	0000                	unimp
  10:	0138                	addi	a4,sp,136
  12:	0000                	unimp
  14:	016c                	addi	a1,sp,140
  16:	0000                	unimp
  18:	0000                	unimp
  1a:	0000                	unimp
  1c:	0000                	unimp
  1e:	0000                	unimp
  20:	001c                	0x1c
  22:	0000                	unimp
  24:	0002                	c.slli64	zero
  26:	0199                	addi	gp,gp,6
  28:	0000                	unimp
  2a:	0004                	0x4
  2c:	0000                	unimp
  2e:	0000                	unimp
  30:	02a4                	addi	s1,sp,328
  32:	0000                	unimp
  34:	0368                	addi	a0,sp,396
  36:	0000                	unimp
  38:	0000                	unimp
  3a:	0000                	unimp
  3c:	0000                	unimp
  3e:	0000                	unimp
  40:	001c                	0x1c
  42:	0000                	unimp
  44:	0002                	c.slli64	zero
  46:	05f0                	addi	a2,sp,716
  48:	0000                	unimp
  4a:	0004                	0x4
  4c:	0000                	unimp
  4e:	0000                	unimp
  50:	060c                	addi	a1,sp,768
  52:	0000                	unimp
  54:	0068                	addi	a0,sp,12
  56:	0000                	unimp
  58:	0000                	unimp
  5a:	0000                	unimp
  5c:	0000                	unimp
  5e:	0000                	unimp
  60:	001c                	0x1c
  62:	0000                	unimp
  64:	0002                	c.slli64	zero
  66:	06f5                	addi	a3,a3,29
  68:	0000                	unimp
  6a:	0004                	0x4
  6c:	0000                	unimp
  6e:	0000                	unimp
  70:	0674                	addi	a3,sp,780
  72:	0000                	unimp
  74:	00fc                	addi	a5,sp,76
  76:	0000                	unimp
  78:	0000                	unimp
  7a:	0000                	unimp
  7c:	0000                	unimp
  7e:	0000                	unimp
  80:	001c                	0x1c
  82:	0000                	unimp
  84:	0002                	c.slli64	zero
  86:	08b8                	addi	a4,sp,88
  88:	0000                	unimp
  8a:	0004                	0x4
  8c:	0000                	unimp
  8e:	0000                	unimp
  90:	0770                	addi	a2,sp,908
  92:	0000                	unimp
  94:	0074                	addi	a3,sp,12
  96:	0000                	unimp
  98:	0000                	unimp
  9a:	0000                	unimp
  9c:	0000                	unimp
  9e:	0000                	unimp

Disassembly of section .debug_line:

00000000 <.debug_line>:
   0:	0161                	addi	sp,sp,24
   2:	0000                	unimp
   4:	00ad0003          	lb	zero,10(s10) # 1d00a <_etext+0x1c826>
   8:	0000                	unimp
   a:	0101                	addi	sp,sp,0
   c:	000d0efb          	0xd0efb
  10:	0101                	addi	sp,sp,0
  12:	0101                	addi	sp,sp,0
  14:	0000                	unimp
  16:	0100                	addi	s0,sp,128
  18:	0000                	unimp
  1a:	6201                	0x6201
  1c:	642f7073          	csrci	0x642,30
  20:	6972                	flw	fs2,28(sp)
  22:	6576                	flw	fa0,92(sp)
  24:	7372                	flw	ft6,60(sp)
  26:	6970672f          	0x6970672f
  2a:	6f2f006f          	j	f071c <_etext+0xeff38>
  2e:	7470                	flw	fa2,108(s0)
  30:	7369722f          	0x7369722f
  34:	32337663          	bgeu	t1,gp,360 <interrupt_claim_request+0x18>
  38:	7369722f          	0x7369722f
  3c:	32337663          	bgeu	t1,gp,368 <interrupt_claim_request+0x20>
  40:	752d                	lui	a0,0xfffeb
  42:	6b6e                	flw	fs6,216(sp)
  44:	6f6e                	flw	ft10,216(sp)
  46:	652d6e77          	0x652d6e77
  4a:	666c                	flw	fa1,76(a2)
  4c:	636e692f          	0x636e692f
  50:	756c                	flw	fa1,108(a0)
  52:	6564                	flw	fs1,76(a0)
  54:	63616d2f          	0x63616d2f
  58:	6968                	flw	fa0,84(a0)
  5a:	656e                	flw	fa0,216(sp)
  5c:	2f00                	fld	fs0,24(a4)
  5e:	2f74706f          	j	47b54 <_etext+0x47370>
  62:	6972                	flw	fs2,28(sp)
  64:	33766373          	csrrsi	t1,mhpmevent23,12
  68:	2f32                	fld	ft10,264(sp)
  6a:	6972                	flw	fs2,28(sp)
  6c:	33766373          	csrrsi	t1,mhpmevent23,12
  70:	2d32                	fld	fs10,264(sp)
  72:	6e75                	lui	t3,0x1d
  74:	776f6e6b          	0x776f6e6b
  78:	2d6e                	fld	fs10,216(sp)
  7a:	6c65                	lui	s8,0x19
  7c:	2f66                	fld	ft10,88(sp)
  7e:	6e69                	lui	t3,0x1a
  80:	64756c63          	bltu	a0,t2,6d8 <handle_trap+0x14>
  84:	2f65                	jal	83c <_etext+0x58>
  86:	00737973          	csrrci	s2,0x7,6
  8a:	6700                	flw	fs0,8(a4)
  8c:	6970                	flw	fa2,84(a0)
  8e:	00632e6f          	jal	t3,32094 <_etext+0x318b0>
  92:	0001                	nop
  94:	5f00                	lw	s0,56(a4)
  96:	6564                	flw	fs1,76(a0)
  98:	6166                	flw	ft2,88(sp)
  9a:	6c75                	lui	s8,0x1d
  9c:	5f74                	lw	a3,124(a4)
  9e:	7974                	flw	fa3,116(a0)
  a0:	6570                	flw	fa2,76(a0)
  a2:	00682e73          	csrrs	t3,0x6,a6
  a6:	0002                	c.slli64	zero
  a8:	5f00                	lw	s0,56(a4)
  aa:	69647473          	csrrci	s0,0x696,8
  ae:	746e                	flw	fs0,248(sp)
  b0:	682e                	flw	fa6,200(sp)
  b2:	0300                	addi	s0,sp,384
  b4:	0000                	unimp
  b6:	0500                	addi	s0,sp,640
  b8:	0205002f          	0x205002f
  bc:	0138                	addi	a4,sp,136
  be:	0000                	unimp
  c0:	0516                	slli	a0,a0,0x5
  c2:	0900033b          	0x900033b
  c6:	0010                	0x10
  c8:	0501                	addi	a0,a0,0
  ca:	0345                	addi	t1,t1,17
  cc:	0900                	addi	s0,sp,144
  ce:	000c                	0xc
  d0:	0501                	addi	a0,a0,0
  d2:	0331                	addi	t1,t1,12
  d4:	00100903          	lb	s2,1(zero) # 1 <_start+0x1>
  d8:	0501                	addi	a0,a0,0
  da:	031e                	slli	t1,t1,0x7
  dc:	0901                	addi	s2,s2,0
  de:	0018                	0x18
  e0:	0501                	addi	a0,a0,0
  e2:	033a                	slli	t1,t1,0xe
  e4:	0900                	addi	s0,sp,144
  e6:	0014                	0x14
  e8:	0501                	addi	a0,a0,0
  ea:	0301                	addi	t1,t1,0
  ec:	0901                	addi	s2,s2,0
  ee:	0008                	0x8
  f0:	0501                	addi	a0,a0,0
  f2:	0349                	addi	t1,t1,18
  f4:	0918                	addi	a4,sp,144
  f6:	0010                	0x10
  f8:	0501                	addi	a0,a0,0
  fa:	0312                	slli	t1,t1,0x4
  fc:	00200903          	lb	s2,2(zero) # 2 <_start+0x2>
 100:	0301                	addi	t1,t1,0
 102:	0901                	addi	s2,s2,0
 104:	0014                	0x14
 106:	0501                	addi	a0,a0,0
 108:	0306                	slli	t1,t1,0x1
 10a:	0901                	addi	s2,s2,0
 10c:	0010                	0x10
 10e:	0501                	addi	a0,a0,0
 110:	032a                	slli	t1,t1,0xa
 112:	0902                	c.slli64	s2
 114:	0008                	0x8
 116:	0501                	addi	a0,a0,0
 118:	0338                	addi	a4,sp,392
 11a:	0900                	addi	s0,sp,144
 11c:	0008                	0x8
 11e:	0501                	addi	a0,a0,0
 120:	0305                	addi	t1,t1,1
 122:	097f                	0x97f
 124:	0010                	0x10
 126:	0501                	addi	a0,a0,0
 128:	0306                	slli	t1,t1,0x1
 12a:	00140903          	lb	s2,1(s0)
 12e:	0501                	addi	a0,a0,0
 130:	0340                	addi	s0,sp,388
 132:	0902                	c.slli64	s2
 134:	0008                	0x8
 136:	0501                	addi	a0,a0,0
 138:	0305                	addi	t1,t1,1
 13a:	097f                	0x97f
 13c:	0008                	0x8
 13e:	0501                	addi	a0,a0,0
 140:	0301                	addi	t1,t1,0
 142:	00180903          	lb	s2,1(a6) # 3001 <_etext+0x281d>
 146:	0501                	addi	a0,a0,0
 148:	0329                	addi	t1,t1,10
 14a:	0902                	c.slli64	s2
 14c:	0014                	0x14
 14e:	0501                	addi	a0,a0,0
 150:	09010303          	lb	t1,144(sp)
 154:	0018                	0x18
 156:	0501                	addi	a0,a0,0
 158:	0301                	addi	t1,t1,0
 15a:	0902                	c.slli64	s2
 15c:	001c                	0x1c
 15e:	0901                	addi	s2,s2,0
 160:	0014                	0x14
 162:	0100                	addi	s0,sp,128
 164:	d501                	beqz	a0,6c <_stext+0x54>
 166:	0002                	c.slli64	zero
 168:	0300                	addi	s0,sp,384
 16a:	0700                	addi	s0,sp,896
 16c:	0001                	nop
 16e:	0100                	addi	s0,sp,128
 170:	fb01                	bnez	a4,80 <_stext+0x68>
 172:	0d0e                	slli	s10,s10,0x3
 174:	0100                	addi	s0,sp,128
 176:	0101                	addi	sp,sp,0
 178:	0001                	nop
 17a:	0000                	unimp
 17c:	0001                	nop
 17e:	0100                	addi	s0,sp,128
 180:	7362                	flw	ft6,56(sp)
 182:	2f70                	fld	fa2,216(a4)
 184:	7264                	flw	fs1,100(a2)
 186:	7669                	lui	a2,0xffffa
 188:	7265                	lui	tp,0xffff9
 18a:	6c702f73          	csrr	t5,0x6c7
 18e:	6369                	lui	t1,0x1a
 190:	2f00                	fld	fs0,24(a4)
 192:	2f74706f          	j	47c88 <_etext+0x474a4>
 196:	6972                	flw	fs2,28(sp)
 198:	33766373          	csrrsi	t1,mhpmevent23,12
 19c:	2f32                	fld	ft10,264(sp)
 19e:	6972                	flw	fs2,28(sp)
 1a0:	33766373          	csrrsi	t1,mhpmevent23,12
 1a4:	2d32                	fld	fs10,264(sp)
 1a6:	6e75                	lui	t3,0x1d
 1a8:	776f6e6b          	0x776f6e6b
 1ac:	2d6e                	fld	fs10,216(sp)
 1ae:	6c65                	lui	s8,0x19
 1b0:	2f66                	fld	ft10,88(sp)
 1b2:	6e69                	lui	t3,0x1a
 1b4:	64756c63          	bltu	a0,t2,80c <_etext+0x28>
 1b8:	2f65                	jal	970 <_etext+0x18c>
 1ba:	616d                	addi	sp,sp,240
 1bc:	6e696863          	bltu	s2,t1,8ac <_etext+0xc8>
 1c0:	0065                	c.nop	25
 1c2:	74706f2f          	0x74706f2f
 1c6:	7369722f          	0x7369722f
 1ca:	32337663          	bgeu	t1,gp,4f6 <plic_set_priority+0x3a>
 1ce:	7369722f          	0x7369722f
 1d2:	32337663          	bgeu	t1,gp,4fe <plic_set_priority+0x42>
 1d6:	752d                	lui	a0,0xfffeb
 1d8:	6b6e                	flw	fs6,216(sp)
 1da:	6f6e                	flw	ft10,216(sp)
 1dc:	652d6e77          	0x652d6e77
 1e0:	666c                	flw	fa1,76(a2)
 1e2:	636e692f          	0x636e692f
 1e6:	756c                	flw	fa1,108(a0)
 1e8:	6564                	flw	fs1,76(a0)
 1ea:	7379732f          	0x7379732f
 1ee:	6200                	flw	fs0,0(a2)
 1f0:	692f7073          	csrci	0x692,30
 1f4:	636e                	flw	ft6,216(sp)
 1f6:	756c                	flw	fa1,108(a0)
 1f8:	6564                	flw	fs1,76(a0)
 1fa:	2f00                	fld	fs0,24(a4)
 1fc:	2f74706f          	j	47cf2 <_etext+0x4750e>
 200:	6972                	flw	fs2,28(sp)
 202:	33766373          	csrrsi	t1,mhpmevent23,12
 206:	2f32                	fld	ft10,264(sp)
 208:	696c                	flw	fa1,84(a0)
 20a:	2f62                	fld	ft10,24(sp)
 20c:	2f636367          	0x2f636367
 210:	6972                	flw	fs2,28(sp)
 212:	33766373          	csrrsi	t1,mhpmevent23,12
 216:	2d32                	fld	fs10,264(sp)
 218:	6e75                	lui	t3,0x1d
 21a:	776f6e6b          	0x776f6e6b
 21e:	2d6e                	fld	fs10,216(sp)
 220:	6c65                	lui	s8,0x19
 222:	2f66                	fld	ft10,88(sp)
 224:	3031                	jal	fffffa30 <__stack_top+0xefffea30>
 226:	322e                	fld	ft4,232(sp)
 228:	302e                	fld	ft0,232(sp)
 22a:	636e692f          	0x636e692f
 22e:	756c                	flw	fa1,108(a0)
 230:	6564                	flw	fs1,76(a0)
 232:	0000                	unimp
 234:	6c70                	flw	fa2,92(s0)
 236:	6369                	lui	t1,0x1a
 238:	632e                	flw	ft6,200(sp)
 23a:	0100                	addi	s0,sp,128
 23c:	0000                	unimp
 23e:	645f 6665 7561      	0x75616665645f
 244:	746c                	flw	fa1,108(s0)
 246:	745f 7079 7365      	0x73657079745f
 24c:	682e                	flw	fa6,200(sp)
 24e:	0200                	addi	s0,sp,256
 250:	0000                	unimp
 252:	735f 6474 6e69      	0x6e696474735f
 258:	2e74                	fld	fa3,216(a2)
 25a:	0068                	addi	a0,sp,12
 25c:	70000003          	lb	zero,1792(zero) # 700 <handle_trap+0x3c>
 260:	696c                	flw	fa1,84(a0)
 262:	00682e63          	0x682e63
 266:	0004                	0x4
 268:	7300                	flw	fs0,32(a4)
 26a:	6474                	flw	fa3,76(s0)
 26c:	6564                	flw	fs1,76(a0)
 26e:	2e66                	fld	ft8,88(sp)
 270:	0068                	addi	a0,sp,12
 272:	0005                	c.nop	1
 274:	0000                	unimp
 276:	0105                	addi	sp,sp,1
 278:	0500                	addi	s0,sp,640
 27a:	a402                	fsd	ft0,8(sp)
 27c:	0002                	c.slli64	zero
 27e:	0300                	addi	s0,sp,384
 280:	010d                	addi	sp,sp,3
 282:	0905                	addi	s2,s2,1
 284:	10090103          	lb	sp,256(s2) # 1100 <_etext+0x91c>
 288:	0100                	addi	s0,sp,128
 28a:	0105                	addi	sp,sp,1
 28c:	08090103          	lb	sp,128(s2)
 290:	0100                	addi	s0,sp,128
 292:	10090d03          	lb	s10,256(s2)
 296:	0100                	addi	s0,sp,128
 298:	0c05                	addi	s8,s8,1
 29a:	10090203          	lb	tp,256(s2)
 29e:	0100                	addi	s0,sp,128
 2a0:	0e05                	addi	t3,t3,1
 2a2:	0c090303          	lb	t1,192(s2)
 2a6:	0100                	addi	s0,sp,128
 2a8:	2d05                	jal	8d8 <_etext+0xf4>
 2aa:	0c090103          	lb	sp,192(s2)
 2ae:	0100                	addi	s0,sp,128
 2b0:	2605                	jal	5d0 <isr_default+0x14>
 2b2:	18090103          	lb	sp,384(s2)
 2b6:	0100                	addi	s0,sp,128
 2b8:	2c05                	jal	4e8 <plic_set_priority+0x2c>
 2ba:	14090003          	lb	zero,320(s2)
 2be:	0100                	addi	s0,sp,128
 2c0:	0105                	addi	sp,sp,1
 2c2:	18090103          	lb	sp,384(s2)
 2c6:	0100                	addi	s0,sp,128
 2c8:	10091403          	lh	s0,256(s2)
 2cc:	0100                	addi	s0,sp,128
 2ce:	0c05                	addi	s8,s8,1
 2d0:	0c090103          	lb	sp,192(s2)
 2d4:	0100                	addi	s0,sp,128
 2d6:	1a05                	addi	s4,s4,-31
 2d8:	04090203          	lb	tp,64(s2)
 2dc:	0100                	addi	s0,sp,128
 2de:	0f05                	addi	t5,t5,1
 2e0:	0c090203          	lb	tp,192(s2)
 2e4:	0100                	addi	s0,sp,128
 2e6:	0905                	addi	s2,s2,1
 2e8:	0c090103          	lb	sp,192(s2)
 2ec:	0100                	addi	s0,sp,128
 2ee:	0105                	addi	sp,sp,1
 2f0:	04090103          	lb	sp,64(s2)
 2f4:	0100                	addi	s0,sp,128
 2f6:	10090303          	lb	t1,256(s2)
 2fa:	0100                	addi	s0,sp,128
 2fc:	1105                	addi	sp,sp,-31
 2fe:	18090303          	lb	t1,384(s2)
 302:	0100                	addi	s0,sp,128
 304:	2d05                	jal	934 <_etext+0x150>
 306:	08090203          	lb	tp,128(s2)
 30a:	0100                	addi	s0,sp,128
 30c:	0b05                	addi	s6,s6,1
 30e:	18090203          	lb	tp,384(s2)
 312:	0100                	addi	s0,sp,128
 314:	0205                	addi	tp,tp,1
 316:	14090003          	lb	zero,320(s2)
 31a:	0100                	addi	s0,sp,128
 31c:	08090203          	lb	tp,128(s2)
 320:	0100                	addi	s0,sp,128
 322:	0105                	addi	sp,sp,1
 324:	08090103          	lb	sp,128(s2)
 328:	0100                	addi	s0,sp,128
 32a:	14090303          	lb	t1,320(s2)
 32e:	0100                	addi	s0,sp,128
 330:	0a05                	addi	s4,s4,1
 332:	10090203          	lb	tp,256(s2)
 336:	0100                	addi	s0,sp,128
 338:	1805                	addi	a6,a6,-31
 33a:	04090203          	lb	tp,64(s2)
 33e:	0100                	addi	s0,sp,128
 340:	1f05                	addi	t5,t5,-31
 342:	0c090303          	lb	t1,192(s2)
 346:	0100                	addi	s0,sp,128
 348:	1905                	addi	s2,s2,-31
 34a:	0c090003          	lb	zero,192(s2)
 34e:	0100                	addi	s0,sp,128
 350:	0105                	addi	sp,sp,1
 352:	0c090103          	lb	sp,192(s2)
 356:	0100                	addi	s0,sp,128
 358:	10090303          	lb	t1,256(s2)
 35c:	0100                	addi	s0,sp,128
 35e:	0b05                	addi	s6,s6,1
 360:	10090103          	lb	sp,256(s2)
 364:	0100                	addi	s0,sp,128
 366:	1905                	addi	s2,s2,-31
 368:	04090303          	lb	t1,64(s2)
 36c:	0100                	addi	s0,sp,128
 36e:	1a05                	addi	s4,s4,-31
 370:	0c090303          	lb	t1,192(s2)
 374:	0100                	addi	s0,sp,128
 376:	2d05                	jal	9a6 <_etext+0x1c2>
 378:	08090203          	lb	tp,128(s2)
 37c:	0100                	addi	s0,sp,128
 37e:	0105                	addi	sp,sp,1
 380:	14090103          	lb	sp,320(s2)
 384:	0100                	addi	s0,sp,128
 386:	3905                	jal	ffffffb6 <__stack_top+0xefffefb6>
 388:	10091e03          	lh	t3,256(s2)
 38c:	0100                	addi	s0,sp,128
 38e:	1a05                	addi	s4,s4,-31
 390:	10090103          	lb	sp,256(s2)
 394:	0100                	addi	s0,sp,128
 396:	0d05                	addi	s10,s10,1
 398:	08090003          	lb	zero,128(s2)
 39c:	0100                	addi	s0,sp,128
 39e:	2305                	jal	8be <_etext+0xda>
 3a0:	04090103          	lb	sp,64(s2)
 3a4:	0100                	addi	s0,sp,128
 3a6:	0105                	addi	sp,sp,1
 3a8:	08090103          	lb	sp,128(s2)
 3ac:	0100                	addi	s0,sp,128
 3ae:	3405                	jal	fffffdce <__stack_top+0xefffedce>
 3b0:	10090203          	lb	tp,256(s2)
 3b4:	0100                	addi	s0,sp,128
 3b6:	1605                	addi	a2,a2,-31
 3b8:	18090203          	lb	tp,384(s2)
 3bc:	0100                	addi	s0,sp,128
 3be:	0305                	addi	t1,t1,1
 3c0:	10090103          	lb	sp,256(s2)
 3c4:	0100                	addi	s0,sp,128
 3c6:	0105                	addi	sp,sp,1
 3c8:	14090103          	lb	sp,320(s2)
 3cc:	0100                	addi	s0,sp,128
 3ce:	2d05                	jal	9fe <_etext+0x21a>
 3d0:	14090203          	lb	tp,320(s2)
 3d4:	0100                	addi	s0,sp,128
 3d6:	0305                	addi	t1,t1,1
 3d8:	14090103          	lb	sp,320(s2)
 3dc:	0100                	addi	s0,sp,128
 3de:	0105                	addi	sp,sp,1
 3e0:	10090203          	lb	tp,256(s2)
 3e4:	0100                	addi	s0,sp,128
 3e6:	2a05                	jal	516 <plic_set_threshold+0xa>
 3e8:	14090203          	lb	tp,320(s2)
 3ec:	0100                	addi	s0,sp,128
 3ee:	0305                	addi	t1,t1,1
 3f0:	14090103          	lb	sp,320(s2)
 3f4:	0100                	addi	s0,sp,128
 3f6:	0105                	addi	sp,sp,1
 3f8:	10090203          	lb	tp,256(s2)
 3fc:	0100                	addi	s0,sp,128
 3fe:	2705                	jal	b1e <_etext+0x33a>
 400:	14090303          	lb	t1,320(s2)
 404:	0100                	addi	s0,sp,128
 406:	0305                	addi	t1,t1,1
 408:	18090103          	lb	sp,384(s2)
 40c:	0100                	addi	s0,sp,128
 40e:	0105                	addi	sp,sp,1
 410:	14090103          	lb	sp,320(s2)
 414:	0100                	addi	s0,sp,128
 416:	14090303          	lb	t1,320(s2)
 41a:	0100                	addi	s0,sp,128
 41c:	10091203          	lh	tp,256(s2)
 420:	0100                	addi	s0,sp,128
 422:	10093003          	0x10093003
 426:	0100                	addi	s0,sp,128
 428:	0205                	addi	tp,tp,1
 42a:	14090a03          	lb	s4,320(s2)
 42e:	0100                	addi	s0,sp,128
 430:	0105                	addi	sp,sp,1
 432:	08090203          	lb	tp,128(s2)
 436:	0100                	addi	s0,sp,128
 438:	1409                	addi	s0,s0,-30
 43a:	0000                	unimp
 43c:	0101                	addi	sp,sp,0
 43e:	00000107          	0x107
 442:	00bb0003          	lb	zero,11(s6)
 446:	0000                	unimp
 448:	0101                	addi	sp,sp,0
 44a:	000d0efb          	0xd0efb
 44e:	0101                	addi	sp,sp,0
 450:	0101                	addi	sp,sp,0
 452:	0000                	unimp
 454:	0100                	addi	s0,sp,128
 456:	0000                	unimp
 458:	6201                	0x6201
 45a:	632f7073          	csrci	0x632,30
 45e:	0065726f          	jal	tp,57464 <_etext+0x56c80>
 462:	74706f2f          	0x74706f2f
 466:	7369722f          	0x7369722f
 46a:	32337663          	bgeu	t1,gp,796 <main+0x26>
 46e:	7369722f          	0x7369722f
 472:	32337663          	bgeu	t1,gp,79e <main+0x2e>
 476:	752d                	lui	a0,0xfffeb
 478:	6b6e                	flw	fs6,216(sp)
 47a:	6f6e                	flw	ft10,216(sp)
 47c:	652d6e77          	0x652d6e77
 480:	666c                	flw	fa1,76(a2)
 482:	636e692f          	0x636e692f
 486:	756c                	flw	fa1,108(a0)
 488:	6564                	flw	fs1,76(a0)
 48a:	63616d2f          	0x63616d2f
 48e:	6968                	flw	fa0,84(a0)
 490:	656e                	flw	fa0,216(sp)
 492:	2f00                	fld	fs0,24(a4)
 494:	2f74706f          	j	47f8a <_etext+0x477a6>
 498:	6972                	flw	fs2,28(sp)
 49a:	33766373          	csrrsi	t1,mhpmevent23,12
 49e:	2f32                	fld	ft10,264(sp)
 4a0:	6972                	flw	fs2,28(sp)
 4a2:	33766373          	csrrsi	t1,mhpmevent23,12
 4a6:	2d32                	fld	fs10,264(sp)
 4a8:	6e75                	lui	t3,0x1d
 4aa:	776f6e6b          	0x776f6e6b
 4ae:	2d6e                	fld	fs10,216(sp)
 4b0:	6c65                	lui	s8,0x19
 4b2:	2f66                	fld	ft10,88(sp)
 4b4:	6e69                	lui	t3,0x1a
 4b6:	64756c63          	bltu	a0,t2,b0e <_etext+0x32a>
 4ba:	2f65                	jal	c72 <_etext+0x48e>
 4bc:	00737973          	csrrci	s2,0x7,6
 4c0:	7362                	flw	ft6,56(sp)
 4c2:	2f70                	fld	fa2,216(a4)
 4c4:	6e69                	lui	t3,0x1a
 4c6:	64756c63          	bltu	a0,t2,b1e <_etext+0x33a>
 4ca:	0065                	c.nop	25
 4cc:	6900                	flw	fs0,16(a0)
 4ce:	696e                	flw	fs2,216(sp)
 4d0:	2e74                	fld	fa3,216(a2)
 4d2:	00010063          	beqz	sp,4d2 <plic_set_priority+0x16>
 4d6:	5f00                	lw	s0,56(a4)
 4d8:	6564                	flw	fs1,76(a0)
 4da:	6166                	flw	ft2,88(sp)
 4dc:	6c75                	lui	s8,0x1d
 4de:	5f74                	lw	a3,124(a4)
 4e0:	7974                	flw	fa3,116(a0)
 4e2:	6570                	flw	fa2,76(a0)
 4e4:	00682e73          	csrrs	t3,0x6,a6
 4e8:	0002                	c.slli64	zero
 4ea:	5f00                	lw	s0,56(a4)
 4ec:	69647473          	csrrci	s0,0x696,8
 4f0:	746e                	flw	fs0,248(sp)
 4f2:	682e                	flw	fa6,200(sp)
 4f4:	0300                	addi	s0,sp,384
 4f6:	0000                	unimp
 4f8:	7274                	flw	fa3,100(a2)
 4fa:	7061                	c.lui	zero,0xffff8
 4fc:	682e                	flw	fa6,200(sp)
 4fe:	0400                	addi	s0,sp,512
 500:	0000                	unimp
 502:	0500                	addi	s0,sp,640
 504:	0018                	0x18
 506:	0205                	addi	tp,tp,1
 508:	060c                	addi	a1,sp,768
 50a:	0000                	unimp
 50c:	0516                	slli	a0,a0,0x5
 50e:	0336                	slli	t1,t1,0xd
 510:	0901                	addi	s2,s2,0
 512:	000c                	0xc
 514:	0501                	addi	a0,a0,0
 516:	09010337          	lui	t1,0x9010
 51a:	0010                	0x10
 51c:	0501                	addi	a0,a0,0
 51e:	0301                	addi	t1,t1,0
 520:	0901                	addi	s2,s2,0
 522:	0010                	0x10
 524:	0501                	addi	a0,a0,0
 526:	030e                	slli	t1,t1,0x3
 528:	0902                	c.slli64	s2
 52a:	0010                	0x10
 52c:	0501                	addi	a0,a0,0
 52e:	0305                	addi	t1,t1,1
 530:	0901                	addi	s2,s2,0
 532:	0010                	0x10
 534:	0301                	addi	t1,t1,0
 536:	0901                	addi	s2,s2,0
 538:	0004                	0x4
 53a:	0501                	addi	a0,a0,0
 53c:	0301                	addi	t1,t1,0
 53e:	0901                	addi	s2,s2,0
 540:	0004                	0x4
 542:	0901                	addi	s2,s2,0
 544:	0014                	0x14
 546:	0100                	addi	s0,sp,128
 548:	6b01                	0x6b01
 54a:	0001                	nop
 54c:	0300                	addi	s0,sp,384
 54e:	bb00                	fsd	fs0,48(a4)
 550:	0000                	unimp
 552:	0100                	addi	s0,sp,128
 554:	fb01                	bnez	a4,464 <interrupt_disable+0x28>
 556:	0d0e                	slli	s10,s10,0x3
 558:	0100                	addi	s0,sp,128
 55a:	0101                	addi	sp,sp,0
 55c:	0001                	nop
 55e:	0000                	unimp
 560:	0001                	nop
 562:	0100                	addi	s0,sp,128
 564:	7362                	flw	ft6,56(sp)
 566:	2f70                	fld	fa2,216(a4)
 568:	65726f63          	bltu	tp,s7,bc6 <_etext+0x3e2>
 56c:	2f00                	fld	fs0,24(a4)
 56e:	2f74706f          	j	48064 <_etext+0x47880>
 572:	6972                	flw	fs2,28(sp)
 574:	33766373          	csrrsi	t1,mhpmevent23,12
 578:	2f32                	fld	ft10,264(sp)
 57a:	6972                	flw	fs2,28(sp)
 57c:	33766373          	csrrsi	t1,mhpmevent23,12
 580:	2d32                	fld	fs10,264(sp)
 582:	6e75                	lui	t3,0x1d
 584:	776f6e6b          	0x776f6e6b
 588:	2d6e                	fld	fs10,216(sp)
 58a:	6c65                	lui	s8,0x19
 58c:	2f66                	fld	ft10,88(sp)
 58e:	6e69                	lui	t3,0x1a
 590:	64756c63          	bltu	a0,t2,be8 <_etext+0x404>
 594:	2f65                	jal	d4c <_etext+0x568>
 596:	616d                	addi	sp,sp,240
 598:	6e696863          	bltu	s2,t1,c88 <_etext+0x4a4>
 59c:	0065                	c.nop	25
 59e:	74706f2f          	0x74706f2f
 5a2:	7369722f          	0x7369722f
 5a6:	32337663          	bgeu	t1,gp,8d2 <_etext+0xee>
 5aa:	7369722f          	0x7369722f
 5ae:	32337663          	bgeu	t1,gp,8da <_etext+0xf6>
 5b2:	752d                	lui	a0,0xfffeb
 5b4:	6b6e                	flw	fs6,216(sp)
 5b6:	6f6e                	flw	ft10,216(sp)
 5b8:	652d6e77          	0x652d6e77
 5bc:	666c                	flw	fa1,76(a2)
 5be:	636e692f          	0x636e692f
 5c2:	756c                	flw	fa1,108(a0)
 5c4:	6564                	flw	fs1,76(a0)
 5c6:	7379732f          	0x7379732f
 5ca:	6200                	flw	fs0,0(a2)
 5cc:	692f7073          	csrci	0x692,30
 5d0:	636e                	flw	ft6,216(sp)
 5d2:	756c                	flw	fa1,108(a0)
 5d4:	6564                	flw	fs1,76(a0)
 5d6:	0000                	unimp
 5d8:	7274                	flw	fa3,100(a2)
 5da:	7061                	c.lui	zero,0xffff8
 5dc:	632e                	flw	ft6,200(sp)
 5de:	0100                	addi	s0,sp,128
 5e0:	0000                	unimp
 5e2:	645f 6665 7561      	0x75616665645f
 5e8:	746c                	flw	fa1,108(s0)
 5ea:	745f 7079 7365      	0x73657079745f
 5f0:	682e                	flw	fa6,200(sp)
 5f2:	0200                	addi	s0,sp,256
 5f4:	0000                	unimp
 5f6:	735f 6474 6e69      	0x6e696474735f
 5fc:	2e74                	fld	fa3,216(a2)
 5fe:	0068                	addi	a0,sp,12
 600:	74000003          	lb	zero,1856(zero) # 740 <handle_trap+0x7c>
 604:	6172                	flw	ft2,28(sp)
 606:	2e70                	fld	fa2,216(a2)
 608:	0068                	addi	a0,sp,12
 60a:	0004                	0x4
 60c:	0000                	unimp
 60e:	0105                	addi	sp,sp,1
 610:	0500                	addi	s0,sp,640
 612:	7402                	flw	fs0,32(sp)
 614:	0006                	c.slli	zero,0x1
 616:	1700                	addi	s0,sp,928
 618:	1105                	addi	sp,sp,-31
 61a:	10090203          	lb	tp,256(s2)
 61e:	0100                	addi	s0,sp,128
 620:	0905                	addi	s2,s2,1
 622:	14090103          	lb	sp,320(s2)
 626:	0100                	addi	s0,sp,128
 628:	0105                	addi	sp,sp,1
 62a:	04090103          	lb	sp,64(s2)
 62e:	0100                	addi	s0,sp,128
 630:	10090203          	lb	tp,256(s2)
 634:	0100                	addi	s0,sp,128
 636:	0705                	addi	a4,a4,1
 638:	0200                	addi	s0,sp,256
 63a:	0104                	addi	s1,sp,128
 63c:	14090103          	lb	sp,320(s2)
 640:	0100                	addi	s0,sp,128
 642:	0105                	addi	sp,sp,1
 644:	04090403          	lb	s0,64(s2)
 648:	0100                	addi	s0,sp,128
 64a:	0f05                	addi	t5,t5,1
 64c:	18090103          	lb	sp,384(s2)
 650:	0100                	addi	s0,sp,128
 652:	0b05                	addi	s6,s6,1
 654:	04090103          	lb	sp,64(s2)
 658:	0100                	addi	s0,sp,128
 65a:	0f05                	addi	t5,t5,1
 65c:	04090203          	lb	tp,64(s2)
 660:	0100                	addi	s0,sp,128
 662:	1205                	addi	tp,tp,-31
 664:	08090303          	lb	t1,128(s2)
 668:	0100                	addi	s0,sp,128
 66a:	0d05                	addi	s10,s10,1
 66c:	10090003          	lb	zero,256(s2)
 670:	0100                	addi	s0,sp,128
 672:	0505                	addi	a0,a0,1
 674:	08090003          	lb	zero,128(s2)
 678:	0100                	addi	s0,sp,128
 67a:	0e05                	addi	t3,t3,1
 67c:	04090103          	lb	sp,64(s2)
 680:	0100                	addi	s0,sp,128
 682:	1905                	addi	s2,s2,-31
 684:	0c090103          	lb	sp,192(s2)
 688:	0100                	addi	s0,sp,128
 68a:	0305                	addi	t1,t1,1
 68c:	14090003          	lb	zero,320(s2)
 690:	0100                	addi	s0,sp,128
 692:	1405                	addi	s0,s0,-31
 694:	10090303          	lb	t1,256(s2)
 698:	0100                	addi	s0,sp,128
 69a:	0305                	addi	t1,t1,1
 69c:	14090003          	lb	zero,320(s2)
 6a0:	0100                	addi	s0,sp,128
 6a2:	0805                	addi	a6,a6,1
 6a4:	0c090203          	lb	tp,192(s2)
 6a8:	0100                	addi	s0,sp,128
 6aa:	0105                	addi	sp,sp,1
 6ac:	04090103          	lb	sp,64(s2)
 6b0:	0100                	addi	s0,sp,128
 6b2:	1409                	addi	s0,s0,-30
 6b4:	0000                	unimp
 6b6:	0101                	addi	sp,sp,0
 6b8:	0111                	addi	sp,sp,4
 6ba:	0000                	unimp
 6bc:	00b50003          	lb	zero,11(a0) # fffeb00b <__stack_top+0xeffea00b>
 6c0:	0000                	unimp
 6c2:	0101                	addi	sp,sp,0
 6c4:	000d0efb          	0xd0efb
 6c8:	0101                	addi	sp,sp,0
 6ca:	0101                	addi	sp,sp,0
 6cc:	0000                	unimp
 6ce:	0100                	addi	s0,sp,128
 6d0:	0000                	unimp
 6d2:	7301                	lui	t1,0xfffe0
 6d4:	7774666f          	jal	a2,4764a <_etext+0x46e66>
 6d8:	7261                	lui	tp,0xffff8
 6da:	7365                	lui	t1,0xffff9
 6dc:	696c702f          	0x696c702f
 6e0:	65745f63          	bge	s0,s7,d3e <_etext+0x55a>
 6e4:	2f007473          	csrrci	s0,0x2f0,0
 6e8:	2f74706f          	j	481de <_etext+0x479fa>
 6ec:	6972                	flw	fs2,28(sp)
 6ee:	33766373          	csrrsi	t1,mhpmevent23,12
 6f2:	2f32                	fld	ft10,264(sp)
 6f4:	6972                	flw	fs2,28(sp)
 6f6:	33766373          	csrrsi	t1,mhpmevent23,12
 6fa:	2d32                	fld	fs10,264(sp)
 6fc:	6e75                	lui	t3,0x1d
 6fe:	776f6e6b          	0x776f6e6b
 702:	2d6e                	fld	fs10,216(sp)
 704:	6c65                	lui	s8,0x19
 706:	2f66                	fld	ft10,88(sp)
 708:	6e69                	lui	t3,0x1a
 70a:	64756c63          	bltu	a0,t2,d62 <_etext+0x57e>
 70e:	2f65                	jal	ec6 <_etext+0x6e2>
 710:	616d                	addi	sp,sp,240
 712:	6e696863          	bltu	s2,t1,e02 <_etext+0x61e>
 716:	0065                	c.nop	25
 718:	74706f2f          	0x74706f2f
 71c:	7369722f          	0x7369722f
 720:	32337663          	bgeu	t1,gp,a4c <_etext+0x268>
 724:	7369722f          	0x7369722f
 728:	32337663          	bgeu	t1,gp,a54 <_etext+0x270>
 72c:	752d                	lui	a0,0xfffeb
 72e:	6b6e                	flw	fs6,216(sp)
 730:	6f6e                	flw	ft10,216(sp)
 732:	652d6e77          	0x652d6e77
 736:	666c                	flw	fa1,76(a2)
 738:	636e692f          	0x636e692f
 73c:	756c                	flw	fa1,108(a0)
 73e:	6564                	flw	fs1,76(a0)
 740:	7379732f          	0x7379732f
 744:	0000                	unimp
 746:	6c70                	flw	fa2,92(s0)
 748:	6369                	lui	t1,0x1a
 74a:	745f 7365 2e74      	0x2e747365745f
 750:	00010063          	beqz	sp,750 <handle_trap+0x8c>
 754:	5f00                	lw	s0,56(a4)
 756:	6564                	flw	fs1,76(a0)
 758:	6166                	flw	ft2,88(sp)
 75a:	6c75                	lui	s8,0x1d
 75c:	5f74                	lw	a3,124(a4)
 75e:	7974                	flw	fa3,116(a0)
 760:	6570                	flw	fa2,76(a0)
 762:	00682e73          	csrrs	t3,0x6,a6
 766:	0002                	c.slli64	zero
 768:	5f00                	lw	s0,56(a4)
 76a:	69647473          	csrrci	s0,0x696,8
 76e:	746e                	flw	fs0,248(sp)
 770:	682e                	flw	fa6,200(sp)
 772:	0300                	addi	s0,sp,384
 774:	0000                	unimp
 776:	0500                	addi	s0,sp,640
 778:	0205000f          	0x205000f
 77c:	0770                	addi	a2,sp,908
 77e:	0000                	unimp
 780:	05012c03          	lw	s8,80(sp)
 784:	030c                	addi	a1,sp,384
 786:	0905                	addi	s2,s2,1
 788:	0010                	0x10
 78a:	0501                	addi	a0,a0,0
 78c:	030d                	addi	t1,t1,3
 78e:	0901                	addi	s2,s2,0
 790:	000c                	0xc
 792:	0501                	addi	a0,a0,0
 794:	030a                	slli	t1,t1,0x2
 796:	000c0903          	lb	s2,0(s8) # 1d000 <_etext+0x1c81c>
 79a:	0501                	addi	a0,a0,0
 79c:	0901030b          	0x901030b
 7a0:	000c                	0xc
 7a2:	0501                	addi	a0,a0,0
 7a4:	0302                	c.slli64	t1
 7a6:	0902                	c.slli64	s2
 7a8:	000c                	0xc
 7aa:	0301                	addi	t1,t1,0
 7ac:	0901                	addi	s2,s2,0
 7ae:	0008                	0x8
 7b0:	0301                	addi	t1,t1,0
 7b2:	0901                	addi	s2,s2,0
 7b4:	000c                	0xc
 7b6:	0501                	addi	a0,a0,0
 7b8:	0309                	addi	t1,t1,2
 7ba:	0916                	slli	s2,s2,0x5
 7bc:	0008                	0x8
 7be:	0501                	addi	a0,a0,0
 7c0:	0301                	addi	t1,t1,0
 7c2:	0901                	addi	s2,s2,0
 7c4:	0004                	0x4
 7c6:	0901                	addi	s2,s2,0
 7c8:	0014                	0x14
 7ca:	0100                	addi	s0,sp,128
 7cc:	01              	Address 0x00000000000007cc is out of bounds.


Disassembly of section .debug_str:

00000000 <.debug_str>:
   0:	616d                	addi	sp,sp,240
   2:	6c5f6b73          	csrrsi	s6,0x6c5,30
   6:	7265776f          	jal	a4,5772c <_etext+0x56f48>
   a:	685f 6c61 0066      	0x666c61685f
  10:	7362                	flw	ft6,56(sp)
  12:	2f70                	fld	fa2,216(a4)
  14:	7264                	flw	fs1,100(a2)
  16:	7669                	lui	a2,0xffffa
  18:	7265                	lui	tp,0xffff9
  1a:	70672f73          	csrrs	t5,0x706,a4
  1e:	6f69                	lui	t5,0x1a
  20:	6970672f          	0x6970672f
  24:	00632e6f          	jal	t3,3202a <_etext+0x31846>
  28:	6572                	flw	fa0,28(sp)
  2a:	70755f67          	0x70755f67
  2e:	6570                	flw	fa2,76(a0)
  30:	5f72                	lw	t5,60(sp)
  32:	7366666f          	jal	a2,66768 <_etext+0x65f84>
  36:	7465                	lui	s0,0xffff9
  38:	4700                	lw	s0,8(a4)
  3a:	554e                	lw	a0,240(sp)
  3c:	4320                	lw	s0,64(a4)
  3e:	3731                	jal	ffffff4a <__stack_top+0xefffef4a>
  40:	3120                	fld	fs0,96(a0)
  42:	2e30                	fld	fa2,88(a2)
  44:	2e32                	fld	ft8,264(sp)
  46:	2030                	fld	fa2,64(s0)
  48:	6d2d                	lui	s10,0xb
  4a:	7261                	lui	tp,0xffff8
  4c:	723d6863          	bltu	s10,gp,77c <main+0xc>
  50:	3376                	fld	ft6,376(sp)
  52:	6932                	flw	fs2,12(sp)
  54:	2d20                	fld	fs0,88(a0)
  56:	616d                	addi	sp,sp,240
  58:	6962                	flw	fs2,24(sp)
  5a:	693d                	lui	s2,0xf
  5c:	706c                	flw	fa1,100(s0)
  5e:	2d203233          	0x2d203233
  62:	636d                	lui	t1,0x1b
  64:	6f6d                	lui	t5,0x1b
  66:	6564                	flw	fs1,76(a0)
  68:	3d6c                	fld	fa1,248(a0)
  6a:	656d                	lui	a0,0x1b
  6c:	6164                	flw	fs1,68(a0)
  6e:	796e                	flw	fs2,248(sp)
  70:	2d20                	fld	fs0,88(a0)
  72:	746d                	lui	s0,0xffffb
  74:	6e75                	lui	t3,0x1d
  76:	3d65                	jal	ffffff2e <__stack_top+0xefffef2e>
  78:	6f72                	flw	ft10,28(sp)
  7a:	74656b63          	bltu	a0,t1,7d0 <main+0x60>
  7e:	2d20                	fld	fs0,88(a0)
  80:	616d                	addi	sp,sp,240
  82:	6372                	flw	ft6,28(sp)
  84:	3d68                	fld	fa0,248(a0)
  86:	7672                	flw	fa2,60(sp)
  88:	20693233          	0x20693233
  8c:	672d                	lui	a4,0xb
  8e:	6700                	flw	fs0,8(a4)
  90:	6970                	flw	fa2,84(a0)
  92:	616d5f6f          	jal	t5,d56a8 <_etext+0xd4ec4>
  96:	64656b73          	csrrsi	s6,0x646,10
  9a:	775f 6972 6574      	0x65746972775f
  a0:	7300                	flw	fs0,32(a4)
  a2:	6f68                	flw	fa0,92(a4)
  a4:	7472                	flw	fs0,60(sp)
  a6:	7520                	flw	fs0,104(a0)
  a8:	736e                	flw	ft6,248(sp)
  aa:	6769                	lui	a4,0x1a
  ac:	656e                	flw	fa0,216(sp)
  ae:	2064                	fld	fs1,192(s0)
  b0:	6e69                	lui	t3,0x1a
  b2:	0074                	addi	a3,sp,12
  b4:	6e75                	lui	t3,0x1d
  b6:	6e676973          	csrrsi	s2,0x6e6,14
  ba:	6465                	lui	s0,0x19
  bc:	6320                	flw	fs0,64(a4)
  be:	6168                	flw	fa0,68(a0)
  c0:	0072                	c.slli	zero,0x1c
  c2:	5f5f 6975 746e      	0x746e69755f5f
  c8:	745f3233          	0x745f3233
  cc:	6200                	flw	fs0,0(a2)
  ce:	7361                	lui	t1,0xffff8
  d0:	0065                	c.nop	25
  d2:	6572                	flw	fa0,28(sp)
  d4:	6f6c5f67          	0x6f6c5f67
  d8:	5f726577          	0x5f726577
  dc:	7366666f          	jal	a2,66812 <_etext+0x6602e>
  e0:	7465                	lui	s0,0xffff9
  e2:	6c00                	flw	fs0,24(s0)
  e4:	20676e6f          	jal	t3,762ea <_etext+0x75b06>
  e8:	6f6c                	flw	fa1,92(a4)
  ea:	676e                	flw	fa4,216(sp)
  ec:	7520                	flw	fs0,104(a0)
  ee:	736e                	flw	ft6,248(sp)
  f0:	6769                	lui	a4,0x1a
  f2:	656e                	flw	fa0,216(sp)
  f4:	2064                	fld	fs1,192(s0)
  f6:	6e69                	lui	t3,0x1a
  f8:	0074                	addi	a3,sp,12
  fa:	6f697067          	0x6f697067
  fe:	6d5f 7361 656b      	0x656b73616d5f
 104:	5f64                	lw	s1,124(a4)
 106:	6962                	flw	fs2,24(sp)
 108:	5f74                	lw	a3,124(a4)
 10a:	74697277          	0x74697277
 10e:	0065                	c.nop	25
 110:	616d                	addi	sp,sp,240
 112:	755f6b73          	csrrsi	s6,0x755,30
 116:	7070                	flw	fa2,100(s0)
 118:	7265                	lui	tp,0xffff9
 11a:	685f 6c61 0066      	0x666c61685f
 120:	6f6c                	flw	fa1,92(a4)
 122:	676e                	flw	fa4,216(sp)
 124:	6c20                	flw	fs0,88(s0)
 126:	20676e6f          	jal	t3,7632c <_etext+0x75b48>
 12a:	6e69                	lui	t3,0x1a
 12c:	0074                	addi	a3,sp,12
 12e:	6d6f682f          	0x6d6f682f
 132:	2f65                	jal	8ea <_etext+0x106>
 134:	7375                	lui	t1,0xffffd
 136:	616d                	addi	sp,sp,240
 138:	2f6e                	fld	ft10,216(sp)
 13a:	6f44                	flw	fs1,28(a4)
 13c:	656d7563          	bgeu	s10,s6,786 <main+0x16>
 140:	746e                	flw	fs0,248(sp)
 142:	7a612f73          	csrrs	t5,0x7a6,sp
 146:	6461                	lui	s0,0x18
 148:	2d69                	jal	7e2 <main+0x72>
 14a:	006b6473          	csrrsi	s0,0x6,22
 14e:	726f6873          	csrrsi	a6,0x726,30
 152:	2074                	fld	fa3,192(s0)
 154:	6e69                	lui	t3,0x1a
 156:	0074                	addi	a3,sp,12
 158:	6e69                	lui	t3,0x1a
 15a:	6564                	flw	fs1,76(a0)
 15c:	0078                	addi	a4,sp,12
 15e:	6e69                	lui	t3,0x1a
 160:	6564                	flw	fs1,76(a0)
 162:	5f78                	lw	a4,124(a4)
 164:	6f74                	flw	fa3,92(a4)
 166:	6d5f 7361 006b      	0x6b73616d5f
 16c:	656d                	lui	a0,0x1b
 16e:	5f6d                	li	t5,-5
 170:	74697277          	0x74697277
 174:	3365                	jal	ffffff1c <__stack_top+0xefffef1c>
 176:	0032                	c.slli	zero,0xc
 178:	6572                	flw	fa0,28(sp)
 17a:	6461                	lui	s0,0x18
 17c:	775f 726f 0064      	0x64726f775f
 182:	6e69                	lui	t3,0x1a
 184:	6574                	flw	fa3,76(a0)
 186:	7272                	flw	ft4,60(sp)
 188:	7075                	c.lui	zero,0xffffd
 18a:	5f74                	lw	a3,124(a4)
 18c:	706d6f63          	bltu	s10,t1,8aa <_etext+0xc6>
 190:	656c                	flw	fa1,76(a0)
 192:	6574                	flw	fa3,76(a0)
 194:	7300                	flw	fs0,32(a4)
 196:	6174                	flw	fa3,68(a0)
 198:	6574                	flw	fa3,76(a0)
 19a:	4d00                	lw	s0,24(a0)
 19c:	5341                	li	t1,-16
 19e:	0044454b          	fnmsub.s	fa0,fs0,ft4,ft0,rmm
 1a2:	6168                	flw	fa0,68(a0)
 1a4:	7472                	flw	fs0,60(sp)
 1a6:	5f30                	lw	a2,120(a4)
 1a8:	6e69                	lui	t3,0x1a
 1aa:	6574                	flw	fa3,76(a0)
 1ac:	7272                	flw	ft4,60(sp)
 1ae:	7075                	c.lui	zero,0xffffd
 1b0:	5f74                	lw	a3,124(a4)
 1b2:	616d                	addi	sp,sp,240
 1b4:	7274                	flw	fa3,100(a2)
 1b6:	7869                	lui	a6,0xffffa
 1b8:	6300                	flw	fs0,0(a4)
 1ba:	69666e6f          	jal	t3,66850 <_etext+0x6606c>
 1be:	65727567          	0x65727567
 1c2:	695f 746e 7265      	0x7265746e695f
 1c8:	7572                	flw	fa0,60(sp)
 1ca:	7470                	flw	fa2,108(s0)
 1cc:	6900                	flw	fs0,16(a0)
 1ce:	746e                	flw	fs0,248(sp)
 1d0:	695f 0064 7563      	0x75630064695f
 1d6:	7272                	flw	ft4,60(sp)
 1d8:	6e65                	lui	t3,0x19
 1da:	5f74                	lw	a3,124(a4)
 1dc:	6176                	flw	ft2,92(sp)
 1de:	756c                	flw	fa1,108(a0)
 1e0:	0065                	c.nop	25
 1e2:	6c70                	flw	fa2,92(s0)
 1e4:	6369                	lui	t1,0x1a
 1e6:	705f 6972 726f      	0x726f6972705f
 1ec:	7469                	lui	s0,0xffffa
 1ee:	5f79                	li	t5,-2
 1f0:	6572                	flw	fa0,28(sp)
 1f2:	666f5f67          	0x666f5f67
 1f6:	7366                	flw	ft6,120(sp)
 1f8:	7465                	lui	s0,0xffff9
 1fa:	6900                	flw	fs0,16(a0)
 1fc:	746e                	flw	fs0,248(sp)
 1fe:	7265                	lui	tp,0xffff9
 200:	7572                	flw	fa0,60(sp)
 202:	7470                	flw	fa2,108(s0)
 204:	645f 7369 6261      	0x62617369645f
 20a:	656c                	flw	fa1,76(a0)
 20c:	6900                	flw	fs0,16(a0)
 20e:	746e                	flw	fs0,248(sp)
 210:	7265                	lui	tp,0xffff9
 212:	7572                	flw	fa0,60(sp)
 214:	7470                	flw	fa2,108(s0)
 216:	635f 616c 6d69      	0x6d69616c635f
 21c:	615f 6464 6572      	0x65726464615f
 222:	63007373          	csrrci	t1,0x630,0
 226:	616c                	flw	fa1,68(a0)
 228:	6d69                	lui	s10,0x1a
 22a:	615f 6464 0072      	0x726464615f
 230:	6f6c                	flw	fa1,92(a4)
 232:	676e                	flw	fa4,216(sp)
 234:	6420                	flw	fs0,72(s0)
 236:	6c62756f          	jal	a0,278fc <_etext+0x27118>
 23a:	0065                	c.nop	25
 23c:	7369                	lui	t1,0xffffa
 23e:	5f72                	lw	t5,60(sp)
 240:	6174                	flw	fa3,68(a0)
 242:	6c62                	flw	fs8,24(sp)
 244:	0065                	c.nop	25
 246:	7362                	flw	ft6,56(sp)
 248:	2f70                	fld	fa2,216(a4)
 24a:	7264                	flw	fs1,100(a2)
 24c:	7669                	lui	a2,0xffffa
 24e:	7265                	lui	tp,0xffff9
 250:	6c702f73          	csrr	t5,0x6c7
 254:	6369                	lui	t1,0x1a
 256:	696c702f          	0x696c702f
 25a:	00632e63          	0x632e63
 25e:	6e69                	lui	t3,0x1a
 260:	6574                	flw	fa3,76(a0)
 262:	7272                	flw	ft4,60(sp)
 264:	7075                	c.lui	zero,0xffffd
 266:	5f74                	lw	a3,124(a4)
 268:	6e65                	lui	t3,0x19
 26a:	6261                	lui	tp,0x18
 26c:	656c                	flw	fa1,76(a0)
 26e:	5f00                	lw	s0,56(a4)
 270:	755f 6e69 3874      	0x38746e69755f
 276:	745f 6900 746e      	0x746e6900745f
 27c:	7265                	lui	tp,0xffff9
 27e:	7572                	flw	fa0,60(sp)
 280:	7470                	flw	fa2,108(s0)
 282:	695f 0064 6c70      	0x6c700064695f
 288:	6369                	lui	t1,0x1a
 28a:	655f 616e 6c62      	0x6c62616e655f
 290:	5f65                	li	t5,-7
 292:	6e69                	lui	t3,0x1a
 294:	6574                	flw	fa3,76(a0)
 296:	7272                	flw	ft4,60(sp)
 298:	7075                	c.lui	zero,0xffffd
 29a:	0074                	addi	a3,sp,12
 29c:	6c70                	flw	fa2,92(s0)
 29e:	6369                	lui	t1,0x1a
 2a0:	735f 7465 745f      	0x745f7465735f
 2a6:	6972                	flw	fs2,28(sp)
 2a8:	72656767          	0x72656767
 2ac:	745f 7079 0065      	0x657079745f
 2b2:	6c70                	flw	fa2,92(s0)
 2b4:	6369                	lui	t1,0x1a
 2b6:	735f 7465 705f      	0x705f7465735f
 2bc:	6972                	flw	fs2,28(sp)
 2be:	7469726f          	jal	tp,97a04 <_etext+0x97220>
 2c2:	0079                	c.nop	30
 2c4:	56524553          	0x56524553
 2c8:	4349                	li	t1,18
 2ca:	4445                	li	s0,17
 2cc:	7000                	flw	fs0,32(s0)
 2ce:	696c                	flw	fa1,84(a0)
 2d0:	65735f63          	bge	t1,s7,92e <_etext+0x14a>
 2d4:	5f74                	lw	a3,124(a4)
 2d6:	6874                	flw	fa3,84(s0)
 2d8:	6572                	flw	fa0,28(sp)
 2da:	6c6f6873          	csrrsi	a6,0x6c6,30
 2de:	0064                	addi	s1,sp,12
 2e0:	7369                	lui	t1,0xffffa
 2e2:	5f72                	lw	t5,60(sp)
 2e4:	6564                	flw	fs1,76(a0)
 2e6:	6166                	flw	ft2,88(sp)
 2e8:	6c75                	lui	s8,0x1d
 2ea:	0074                	addi	a3,sp,12
 2ec:	4e49                	li	t3,18
 2ee:	4341                	li	t1,16
 2f0:	4954                	lw	a3,20(a0)
 2f2:	4556                	lw	a0,84(sp)
 2f4:	5f00                	lw	s0,56(a4)
 2f6:	6f42                	flw	ft10,16(sp)
 2f8:	5f006c6f          	jal	s8,68e8 <_etext+0x6104>
 2fc:	755f 6e69 7074      	0x70746e69755f
 302:	7274                	flw	fa3,100(a2)
 304:	745f 7000 696c      	0x696c7000745f
 30a:	70665f63          	bge	a2,t1,a28 <_etext+0x244>
 30e:	7274                	flw	fa3,100(a2)
 310:	745f 6300 756f      	0x756f6300745f
 316:	746e                	flw	fs0,248(sp)
 318:	6900                	flw	fs0,16(a0)
 31a:	746e                	flw	fs0,248(sp)
 31c:	7265                	lui	tp,0xffff9
 31e:	7572                	flw	fa0,60(sp)
 320:	7470                	flw	fa2,108(s0)
 322:	735f 6174 7574      	0x75746174735f
 328:	00655f73          	csrrwi	t5,0x6,10
 32c:	656e                	flw	fa0,216(sp)
 32e:	61765f77          	0x61765f77
 332:	756c                	flw	fa1,108(a0)
 334:	0065                	c.nop	25
 336:	6e69                	lui	t3,0x1a
 338:	6574                	flw	fa3,76(a0)
 33a:	7272                	flw	ft4,60(sp)
 33c:	7075                	c.lui	zero,0xffffd
 33e:	5f74                	lw	a3,124(a4)
 340:	6964                	flw	fs1,84(a0)
 342:	6c626173          	csrrsi	sp,0x6c6,4
 346:	5f65                	li	t5,-7
 348:	6461                	lui	s0,0x18
 34a:	7264                	flw	fs1,100(a2)
 34c:	7000                	flw	fs0,32(s0)
 34e:	7274                	flw	fa3,100(a2)
 350:	6964                	flw	fs1,84(a0)
 352:	6666                	flw	fa2,88(sp)
 354:	745f 6900 746e      	0x746e6900745f
 35a:	7265                	lui	tp,0xffff9
 35c:	7572                	flw	fa0,60(sp)
 35e:	7470                	flw	fa2,108(s0)
 360:	655f 616e 6c62      	0x6c62616e655f
 366:	5f65                	li	t5,-7
 368:	6461                	lui	s0,0x18
 36a:	7264                	flw	fs1,100(a2)
 36c:	6900                	flw	fs0,16(a0)
 36e:	746e                	flw	fs0,248(sp)
 370:	7265                	lui	tp,0xffff9
 372:	7572                	flw	fa0,60(sp)
 374:	7470                	flw	fa2,108(s0)
 376:	645f 7461 5f61      	0x5f617461645f
 37c:	0074                	addi	a3,sp,12
 37e:	616d                	addi	sp,sp,240
 380:	705f6863          	bltu	t5,t0,a90 <_etext+0x2ac>
 384:	696c                	flw	fa1,84(a0)
 386:	61685f63          	bge	a6,s6,9a4 <_etext+0x1c0>
 38a:	646e                	flw	fs0,216(sp)
 38c:	656c                	flw	fa1,76(a0)
 38e:	0072                	c.slli	zero,0x1c
 390:	6e69                	lui	t3,0x1a
 392:	6574                	flw	fa3,76(a0)
 394:	7272                	flw	ft4,60(sp)
 396:	7075                	c.lui	zero,0xffffd
 398:	5f74                	lw	a3,124(a4)
 39a:	69616c63          	bltu	sp,s6,a32 <_etext+0x24e>
 39e:	5f6d                	li	t5,-5
 3a0:	6572                	flw	fa0,28(sp)
 3a2:	7571                	lui	a0,0xffffc
 3a4:	7365                	lui	t1,0xffff9
 3a6:	0074                	addi	a3,sp,12
 3a8:	7274                	flw	fa3,100(a2)
 3aa:	7061                	c.lui	zero,0xffff8
 3ac:	695f 696e 0074      	0x74696e695f
 3b2:	7362                	flw	ft6,56(sp)
 3b4:	2f70                	fld	fa2,216(a4)
 3b6:	65726f63          	bltu	tp,s7,a14 <_etext+0x230>
 3ba:	696e692f          	0x696e692f
 3be:	2e74                	fld	fa3,216(a2)
 3c0:	636d0063          	beq	s10,s6,9e0 <_etext+0x1fc>
 3c4:	7561                	lui	a0,0xffff8
 3c6:	745f6573          	csrrsi	a0,0x745,30
 3ca:	6172                	flw	ft2,28(sp)
 3cc:	5f70                	lw	a2,124(a4)
 3ce:	6174                	flw	fa3,68(a0)
 3d0:	6c62                	flw	fs8,24(sp)
 3d2:	0065                	c.nop	25
 3d4:	616d                	addi	sp,sp,240
 3d6:	6e69                	lui	t3,0x1a
 3d8:	6d00                	flw	fs0,24(a0)
 3da:	7274                	flw	fa3,100(a2)
 3dc:	7061                	c.lui	zero,0xffff8
 3de:	665f 7470 5f72      	0x5f727470665f
 3e4:	0074                	addi	a3,sp,12
 3e6:	636d                	lui	t1,0x1b
 3e8:	7561                	lui	a0,0xffff8
 3ea:	695f6573          	csrrsi	a0,0x695,30
 3ee:	746e                	flw	fs0,248(sp)
 3f0:	7265                	lui	tp,0xffff9
 3f2:	7572                	flw	fa0,60(sp)
 3f4:	7470                	flw	fa2,108(s0)
 3f6:	745f 6261 656c      	0x656c6261745f
 3fc:	6500                	flw	fs0,8(a0)
 3fe:	7478                	flw	fa4,108(s0)
 400:	6172                	flw	ft2,28(sp)
 402:	695f7463          	bgeu	t5,s5,a8a <_etext+0x2a6>
 406:	5f65                	li	t5,-7
 408:	65646f63          	bltu	s0,s6,a66 <_etext+0x282>
 40c:	7300                	flw	fs0,32(a4)
 40e:	6968                	flw	fa0,84(a0)
 410:	7466                	flw	fs0,120(sp)
 412:	6c5f 6e65 7467      	0x74676e656c5f
 418:	0068                	addi	a0,sp,12
 41a:	6168                	flw	fa0,68(a0)
 41c:	646e                	flw	fs0,216(sp)
 41e:	656c                	flw	fa1,76(a0)
 420:	745f 6172 0070      	0x706172745f
 426:	636d                	lui	t1,0x1b
 428:	7561                	lui	a0,0xffff8
 42a:	65006573          	csrrsi	a0,0x650,0
 42e:	6378                	flw	fa4,68(a4)
 430:	7065                	c.lui	zero,0xffff9
 432:	6974                	flw	fa3,84(a0)
 434:	635f6e6f          	jal	t3,f7268 <_etext+0xf6a84>
 438:	0065646f          	jal	s0,5643e <_etext+0x55c5a>
 43c:	6564                	flw	fs1,76(a0)
 43e:	6166                	flw	ft2,88(sp)
 440:	6c75                	lui	s8,0x1d
 442:	5f74                	lw	a3,124(a4)
 444:	6168                	flw	fa0,68(a0)
 446:	646e                	flw	fs0,216(sp)
 448:	656c                	flw	fa1,76(a0)
 44a:	0072                	c.slli	zero,0x1c
 44c:	7362                	flw	ft6,56(sp)
 44e:	2f70                	fld	fa2,216(a4)
 450:	65726f63          	bltu	tp,s7,aae <_etext+0x2ca>
 454:	6172742f          	0x6172742f
 458:	2e70                	fld	fa2,216(a2)
 45a:	65690063          	beq	s2,s6,a9a <_etext+0x2b6>
 45e:	655f 746e 7972      	0x7972746e655f
 464:	7300                	flw	fs0,32(a4)
 466:	7774666f          	jal	a2,473dc <_etext+0x46bf8>
 46a:	7261                	lui	tp,0xffff8
 46c:	7365                	lui	t1,0xffff9
 46e:	696c702f          	0x696c702f
 472:	65745f63          	bge	s0,s7,ad0 <_etext+0x2ec>
 476:	702f7473          	csrrci	s0,0x702,30
 47a:	696c                	flw	fa1,84(a0)
 47c:	65745f63          	bge	s0,s7,ada <_etext+0x2f6>
 480:	632e7473          	csrrci	s0,0x632,28
 484:	7200                	flw	fs0,32(a2)
 486:	7465                	lui	s0,0xffff9
 488:	6176                	flw	ft2,92(sp)
 48a:	006c                	addi	a1,sp,12
 48c:	6f697067          	0x6f697067
 490:	695f 746e 0072      	0x72746e695f
 496:	766c                	flw	fa1,108(a2)
 498:	686c                	flw	fa1,84(s0)
 49a:	6769                	lui	a4,0x1a
 49c:	0068                	addi	a0,sp,12

Disassembly of section .debug_frame:

00000000 <.debug_frame>:
   0:	000c                	0xc
   2:	0000                	unimp
   4:	ffff                	0xffff
   6:	ffff                	0xffff
   8:	7c010003          	lb	zero,1984(sp)
   c:	0d01                	addi	s10,s10,0
   e:	0002                	c.slli64	zero
  10:	0020                	addi	s0,sp,8
  12:	0000                	unimp
  14:	0000                	unimp
  16:	0000                	unimp
  18:	0138                	addi	a4,sp,136
  1a:	0000                	unimp
  1c:	002c                	addi	a1,sp,8
  1e:	0000                	unimp
  20:	0e44                	addi	s1,sp,788
  22:	4420                	lw	s0,72(s0)
  24:	0188                	addi	a0,sp,192
  26:	0c44                	addi	s1,sp,532
  28:	0008                	0x8
  2a:	c858                	sw	a4,20(s0)
  2c:	020c                	addi	a1,sp,256
  2e:	4420                	lw	s0,72(s0)
  30:	000e                	c.slli	zero,0x3
  32:	0000                	unimp
  34:	0020                	addi	s0,sp,8
  36:	0000                	unimp
  38:	0000                	unimp
  3a:	0000                	unimp
  3c:	0164                	addi	s1,sp,140
  3e:	0000                	unimp
  40:	0044                	addi	s1,sp,4
  42:	0000                	unimp
  44:	0e44                	addi	s1,sp,788
  46:	4420                	lw	s0,72(s0)
  48:	0188                	addi	a0,sp,192
  4a:	0c44                	addi	s1,sp,532
  4c:	0008                	0x8
  4e:	c870                	sw	a2,84(s0)
  50:	020c                	addi	a1,sp,256
  52:	4420                	lw	s0,72(s0)
  54:	000e                	c.slli	zero,0x3
  56:	0000                	unimp
  58:	0024                	addi	s1,sp,8
  5a:	0000                	unimp
  5c:	0000                	unimp
  5e:	0000                	unimp
  60:	01a8                	addi	a0,sp,200
  62:	0000                	unimp
  64:	00b4                	addi	a3,sp,72
  66:	0000                	unimp
  68:	0e44                	addi	s1,sp,788
  6a:	4830                	lw	a2,80(s0)
  6c:	0181                	addi	gp,gp,0
  6e:	0288                	addi	a0,sp,320
  70:	0c44                	addi	s1,sp,532
  72:	0008                	0x8
  74:	9802                	jalr	a6
  76:	44c1                	li	s1,16
  78:	0cc8                	addi	a0,sp,596
  7a:	3002                	fld	ft0,32(sp)
  7c:	0e44                	addi	s1,sp,788
  7e:	0000                	unimp
  80:	0024                	addi	s1,sp,8
  82:	0000                	unimp
  84:	0000                	unimp
  86:	0000                	unimp
  88:	025c                	addi	a5,sp,260
  8a:	0000                	unimp
  8c:	0048                	addi	a0,sp,4
  8e:	0000                	unimp
  90:	0e44                	addi	s1,sp,788
  92:	4820                	lw	s0,80(s0)
  94:	0181                	addi	gp,gp,0
  96:	0288                	addi	a0,sp,320
  98:	0c44                	addi	s1,sp,532
  9a:	0008                	0x8
  9c:	c16c                	sw	a1,68(a0)
  9e:	c844                	sw	s1,20(s0)
  a0:	020c                	addi	a1,sp,256
  a2:	4420                	lw	s0,72(s0)
  a4:	000e                	c.slli	zero,0x3
  a6:	0000                	unimp
  a8:	000c                	0xc
  aa:	0000                	unimp
  ac:	ffff                	0xffff
  ae:	ffff                	0xffff
  b0:	7c010003          	lb	zero,1984(sp)
  b4:	0d01                	addi	s10,s10,0
  b6:	0002                	c.slli64	zero
  b8:	0020                	addi	s0,sp,8
  ba:	0000                	unimp
  bc:	00a8                	addi	a0,sp,72
  be:	0000                	unimp
  c0:	02a4                	addi	s1,sp,328
  c2:	0000                	unimp
  c4:	0028                	addi	a0,sp,8
  c6:	0000                	unimp
  c8:	0e44                	addi	s1,sp,788
  ca:	4420                	lw	s0,72(s0)
  cc:	0188                	addi	a0,sp,192
  ce:	0c44                	addi	s1,sp,532
  d0:	0008                	0x8
  d2:	c854                	sw	a3,20(s0)
  d4:	020c                	addi	a1,sp,256
  d6:	4420                	lw	s0,72(s0)
  d8:	000e                	c.slli	zero,0x3
  da:	0000                	unimp
  dc:	0020                	addi	s0,sp,8
  de:	0000                	unimp
  e0:	00a8                	addi	a0,sp,72
  e2:	0000                	unimp
  e4:	02cc                	addi	a1,sp,324
  e6:	0000                	unimp
  e8:	007c                	addi	a5,sp,12
  ea:	0000                	unimp
  ec:	0e44                	addi	s1,sp,788
  ee:	4430                	lw	a2,72(s0)
  f0:	0188                	addi	a0,sp,192
  f2:	0c44                	addi	s1,sp,532
  f4:	0008                	0x8
  f6:	6802                	flw	fa6,0(sp)
  f8:	0cc8                	addi	a0,sp,596
  fa:	3002                	fld	ft0,32(sp)
  fc:	0e44                	addi	s1,sp,788
  fe:	0000                	unimp
 100:	0020                	addi	s0,sp,8
 102:	0000                	unimp
 104:	00a8                	addi	a0,sp,72
 106:	0000                	unimp
 108:	0348                	addi	a0,sp,388
 10a:	0000                	unimp
 10c:	003c                	addi	a5,sp,8
 10e:	0000                	unimp
 110:	0e44                	addi	s1,sp,788
 112:	4420                	lw	s0,72(s0)
 114:	0188                	addi	a0,sp,192
 116:	0c44                	addi	s1,sp,532
 118:	0008                	0x8
 11a:	c868                	sw	a0,84(s0)
 11c:	020c                	addi	a1,sp,256
 11e:	4420                	lw	s0,72(s0)
 120:	000e                	c.slli	zero,0x3
 122:	0000                	unimp
 124:	0024                	addi	s1,sp,8
 126:	0000                	unimp
 128:	00a8                	addi	a0,sp,72
 12a:	0000                	unimp
 12c:	0384                	addi	s1,sp,448
 12e:	0000                	unimp
 130:	0070                	addi	a2,sp,12
 132:	0000                	unimp
 134:	0e44                	addi	s1,sp,788
 136:	4830                	lw	a2,80(s0)
 138:	0181                	addi	gp,gp,0
 13a:	0288                	addi	a0,sp,320
 13c:	0c44                	addi	s1,sp,532
 13e:	0008                	0x8
 140:	5402                	lw	s0,32(sp)
 142:	44c1                	li	s1,16
 144:	0cc8                	addi	a0,sp,596
 146:	3002                	fld	ft0,32(sp)
 148:	0e44                	addi	s1,sp,788
 14a:	0000                	unimp
 14c:	0020                	addi	s0,sp,8
 14e:	0000                	unimp
 150:	00a8                	addi	a0,sp,72
 152:	0000                	unimp
 154:	03f4                	addi	a3,sp,460
 156:	0000                	unimp
 158:	0048                	addi	a0,sp,4
 15a:	0000                	unimp
 15c:	0e44                	addi	s1,sp,788
 15e:	4430                	lw	a2,72(s0)
 160:	0188                	addi	a0,sp,192
 162:	0c44                	addi	s1,sp,532
 164:	0008                	0x8
 166:	c874                	sw	a3,84(s0)
 168:	020c                	addi	a1,sp,256
 16a:	4430                	lw	a2,72(s0)
 16c:	000e                	c.slli	zero,0x3
 16e:	0000                	unimp
 170:	0020                	addi	s0,sp,8
 172:	0000                	unimp
 174:	00a8                	addi	a0,sp,72
 176:	0000                	unimp
 178:	043c                	addi	a5,sp,520
 17a:	0000                	unimp
 17c:	004c                	addi	a1,sp,4
 17e:	0000                	unimp
 180:	0e44                	addi	s1,sp,788
 182:	4430                	lw	a2,72(s0)
 184:	0188                	addi	a0,sp,192
 186:	0c44                	addi	s1,sp,532
 188:	0008                	0x8
 18a:	c878                	sw	a4,84(s0)
 18c:	020c                	addi	a1,sp,256
 18e:	4430                	lw	a2,72(s0)
 190:	000e                	c.slli	zero,0x3
 192:	0000                	unimp
 194:	0020                	addi	s0,sp,8
 196:	0000                	unimp
 198:	00a8                	addi	a0,sp,72
 19a:	0000                	unimp
 19c:	0488                	addi	a0,sp,576
 19e:	0000                	unimp
 1a0:	0034                	addi	a3,sp,8
 1a2:	0000                	unimp
 1a4:	0e44                	addi	s1,sp,788
 1a6:	4430                	lw	a2,72(s0)
 1a8:	0188                	addi	a0,sp,192
 1aa:	0c44                	addi	s1,sp,532
 1ac:	0008                	0x8
 1ae:	c860                	sw	s0,84(s0)
 1b0:	020c                	addi	a1,sp,256
 1b2:	4430                	lw	a2,72(s0)
 1b4:	000e                	c.slli	zero,0x3
 1b6:	0000                	unimp
 1b8:	0024                	addi	s1,sp,8
 1ba:	0000                	unimp
 1bc:	00a8                	addi	a0,sp,72
 1be:	0000                	unimp
 1c0:	04bc                	addi	a5,sp,584
 1c2:	0000                	unimp
 1c4:	0050                	addi	a2,sp,4
 1c6:	0000                	unimp
 1c8:	0e44                	addi	s1,sp,788
 1ca:	4830                	lw	a2,80(s0)
 1cc:	0181                	addi	gp,gp,0
 1ce:	0288                	addi	a0,sp,320
 1d0:	0c44                	addi	s1,sp,532
 1d2:	0008                	0x8
 1d4:	c174                	sw	a3,68(a0)
 1d6:	c844                	sw	s1,20(s0)
 1d8:	020c                	addi	a1,sp,256
 1da:	4430                	lw	a2,72(s0)
 1dc:	000e                	c.slli	zero,0x3
 1de:	0000                	unimp
 1e0:	0024                	addi	s1,sp,8
 1e2:	0000                	unimp
 1e4:	00a8                	addi	a0,sp,72
 1e6:	0000                	unimp
 1e8:	050c                	addi	a1,sp,640
 1ea:	0000                	unimp
 1ec:	0038                	addi	a4,sp,8
 1ee:	0000                	unimp
 1f0:	0e44                	addi	s1,sp,788
 1f2:	4820                	lw	s0,80(s0)
 1f4:	0181                	addi	gp,gp,0
 1f6:	0288                	addi	a0,sp,320
 1f8:	0c44                	addi	s1,sp,532
 1fa:	0008                	0x8
 1fc:	c15c                	sw	a5,4(a0)
 1fe:	c844                	sw	s1,20(s0)
 200:	020c                	addi	a1,sp,256
 202:	4420                	lw	s0,72(s0)
 204:	000e                	c.slli	zero,0x3
 206:	0000                	unimp
 208:	0024                	addi	s1,sp,8
 20a:	0000                	unimp
 20c:	00a8                	addi	a0,sp,72
 20e:	0000                	unimp
 210:	0544                	addi	s1,sp,644
 212:	0000                	unimp
 214:	0038                	addi	a4,sp,8
 216:	0000                	unimp
 218:	0e44                	addi	s1,sp,788
 21a:	4820                	lw	s0,80(s0)
 21c:	0181                	addi	gp,gp,0
 21e:	0288                	addi	a0,sp,320
 220:	0c44                	addi	s1,sp,532
 222:	0008                	0x8
 224:	c15c                	sw	a5,4(a0)
 226:	c844                	sw	s1,20(s0)
 228:	020c                	addi	a1,sp,256
 22a:	4420                	lw	s0,72(s0)
 22c:	000e                	c.slli	zero,0x3
 22e:	0000                	unimp
 230:	0024                	addi	s1,sp,8
 232:	0000                	unimp
 234:	00a8                	addi	a0,sp,72
 236:	0000                	unimp
 238:	057c                	addi	a5,sp,652
 23a:	0000                	unimp
 23c:	0040                	addi	s0,sp,4
 23e:	0000                	unimp
 240:	0e44                	addi	s1,sp,788
 242:	4820                	lw	s0,80(s0)
 244:	0181                	addi	gp,gp,0
 246:	0288                	addi	a0,sp,320
 248:	0c44                	addi	s1,sp,532
 24a:	0008                	0x8
 24c:	c164                	sw	s1,68(a0)
 24e:	c844                	sw	s1,20(s0)
 250:	020c                	addi	a1,sp,256
 252:	4420                	lw	s0,72(s0)
 254:	000e                	c.slli	zero,0x3
 256:	0000                	unimp
 258:	0020                	addi	s0,sp,8
 25a:	0000                	unimp
 25c:	00a8                	addi	a0,sp,72
 25e:	0000                	unimp
 260:	05bc                	addi	a5,sp,712
 262:	0000                	unimp
 264:	0020                	addi	s0,sp,8
 266:	0000                	unimp
 268:	0e44                	addi	s1,sp,788
 26a:	4420                	lw	s0,72(s0)
 26c:	0188                	addi	a0,sp,192
 26e:	0c44                	addi	s1,sp,532
 270:	0008                	0x8
 272:	c84c                	sw	a1,20(s0)
 274:	020c                	addi	a1,sp,256
 276:	4420                	lw	s0,72(s0)
 278:	000e                	c.slli	zero,0x3
 27a:	0000                	unimp
 27c:	0024                	addi	s1,sp,8
 27e:	0000                	unimp
 280:	00a8                	addi	a0,sp,72
 282:	0000                	unimp
 284:	05dc                	addi	a5,sp,708
 286:	0000                	unimp
 288:	0030                	addi	a2,sp,8
 28a:	0000                	unimp
 28c:	0e44                	addi	s1,sp,788
 28e:	4820                	lw	s0,80(s0)
 290:	0181                	addi	gp,gp,0
 292:	0288                	addi	a0,sp,320
 294:	0c44                	addi	s1,sp,532
 296:	0008                	0x8
 298:	c154                	sw	a3,4(a0)
 29a:	c844                	sw	s1,20(s0)
 29c:	020c                	addi	a1,sp,256
 29e:	4420                	lw	s0,72(s0)
 2a0:	000e                	c.slli	zero,0x3
 2a2:	0000                	unimp
 2a4:	000c                	0xc
 2a6:	0000                	unimp
 2a8:	ffff                	0xffff
 2aa:	ffff                	0xffff
 2ac:	7c010003          	lb	zero,1984(sp)
 2b0:	0d01                	addi	s10,s10,0
 2b2:	0002                	c.slli64	zero
 2b4:	0020                	addi	s0,sp,8
 2b6:	0000                	unimp
 2b8:	02a4                	addi	s1,sp,328
 2ba:	0000                	unimp
 2bc:	060c                	addi	a1,sp,768
 2be:	0000                	unimp
 2c0:	003c                	addi	a5,sp,8
 2c2:	0000                	unimp
 2c4:	0e44                	addi	s1,sp,788
 2c6:	4410                	lw	a2,8(s0)
 2c8:	0188                	addi	a0,sp,192
 2ca:	0c44                	addi	s1,sp,532
 2cc:	0008                	0x8
 2ce:	c868                	sw	a0,84(s0)
 2d0:	020c                	addi	a1,sp,256
 2d2:	4410                	lw	a2,8(s0)
 2d4:	000e                	c.slli	zero,0x3
 2d6:	0000                	unimp
 2d8:	0024                	addi	s1,sp,8
 2da:	0000                	unimp
 2dc:	02a4                	addi	s1,sp,328
 2de:	0000                	unimp
 2e0:	0648                	addi	a0,sp,772
 2e2:	0000                	unimp
 2e4:	002c                	addi	a1,sp,8
 2e6:	0000                	unimp
 2e8:	0e44                	addi	s1,sp,788
 2ea:	4810                	lw	a2,16(s0)
 2ec:	0181                	addi	gp,gp,0
 2ee:	0288                	addi	a0,sp,320
 2f0:	0c44                	addi	s1,sp,532
 2f2:	0008                	0x8
 2f4:	c150                	sw	a2,4(a0)
 2f6:	c844                	sw	s1,20(s0)
 2f8:	020c                	addi	a1,sp,256
 2fa:	4410                	lw	a2,8(s0)
 2fc:	000e                	c.slli	zero,0x3
 2fe:	0000                	unimp
 300:	000c                	0xc
 302:	0000                	unimp
 304:	ffff                	0xffff
 306:	ffff                	0xffff
 308:	7c010003          	lb	zero,1984(sp)
 30c:	0d01                	addi	s10,s10,0
 30e:	0002                	c.slli64	zero
 310:	0020                	addi	s0,sp,8
 312:	0000                	unimp
 314:	0300                	addi	s0,sp,384
 316:	0000                	unimp
 318:	0674                	addi	a3,sp,780
 31a:	0000                	unimp
 31c:	0038                	addi	a4,sp,8
 31e:	0000                	unimp
 320:	0e44                	addi	s1,sp,788
 322:	4430                	lw	a2,72(s0)
 324:	0188                	addi	a0,sp,192
 326:	0c44                	addi	s1,sp,532
 328:	0008                	0x8
 32a:	c864                	sw	s1,84(s0)
 32c:	020c                	addi	a1,sp,256
 32e:	4430                	lw	a2,72(s0)
 330:	000e                	c.slli	zero,0x3
 332:	0000                	unimp
 334:	0018                	0x18
 336:	0000                	unimp
 338:	0300                	addi	s0,sp,384
 33a:	0000                	unimp
 33c:	06ac                	addi	a1,sp,840
 33e:	0000                	unimp
 340:	0018                	0x18
 342:	0000                	unimp
 344:	0e44                	addi	s1,sp,788
 346:	4420                	lw	s0,72(s0)
 348:	0188                	addi	a0,sp,192
 34a:	0c44                	addi	s1,sp,532
 34c:	0008                	0x8
 34e:	0000                	unimp
 350:	0024                	addi	s1,sp,8
 352:	0000                	unimp
 354:	0300                	addi	s0,sp,384
 356:	0000                	unimp
 358:	06c4                	addi	s1,sp,836
 35a:	0000                	unimp
 35c:	00ac                	addi	a1,sp,72
 35e:	0000                	unimp
 360:	0e44                	addi	s1,sp,788
 362:	4830                	lw	a2,80(s0)
 364:	0181                	addi	gp,gp,0
 366:	0288                	addi	a0,sp,320
 368:	0c44                	addi	s1,sp,532
 36a:	0008                	0x8
 36c:	9002                	ebreak
 36e:	44c1                	li	s1,16
 370:	0cc8                	addi	a0,sp,596
 372:	3002                	fld	ft0,32(sp)
 374:	0e44                	addi	s1,sp,788
 376:	0000                	unimp
 378:	000c                	0xc
 37a:	0000                	unimp
 37c:	ffff                	0xffff
 37e:	ffff                	0xffff
 380:	7c010003          	lb	zero,1984(sp)
 384:	0d01                	addi	s10,s10,0
 386:	0002                	c.slli64	zero
 388:	0024                	addi	s1,sp,8
 38a:	0000                	unimp
 38c:	0378                	addi	a4,sp,396
 38e:	0000                	unimp
 390:	0770                	addi	a2,sp,908
 392:	0000                	unimp
 394:	0074                	addi	a3,sp,12
 396:	0000                	unimp
 398:	0e44                	addi	s1,sp,788
 39a:	4820                	lw	s0,80(s0)
 39c:	0181                	addi	gp,gp,0
 39e:	0288                	addi	a0,sp,320
 3a0:	0c44                	addi	s1,sp,532
 3a2:	0008                	0x8
 3a4:	5802                	lw	a6,32(sp)
 3a6:	44c1                	li	s1,16
 3a8:	0cc8                	addi	a0,sp,596
 3aa:	2002                	fld	ft0,0(sp)
 3ac:	0e44                	addi	s1,sp,788
 3ae:	0000                	unimp
