/home/usman/Documents/azadi-sdk/test/output/hello.merl:     file format elf32-littleriscv


Disassembly of section .init:

00000000 <_start>:
   0:	10000197          	auipc	gp,0x10000
   4:	00018193          	mv	gp,gp
   8:	10001117          	auipc	sp,0x10001
   c:	ff810113          	addi	sp,sp,-8 # 10001000 <__stack_top>
  10:	00010433          	add	s0,sp,zero
  14:	0040006f          	j	18 <main>

Disassembly of section .text:

00000018 <main>:
  18:	ff010113          	addi	sp,sp,-16
  1c:	00112623          	sw	ra,12(sp)
  20:	00812423          	sw	s0,8(sp)
  24:	01010413          	addi	s0,sp,16
  28:	00100593          	li	a1,1
  2c:	00300513          	li	a0,3
  30:	01c000ef          	jal	ra,4c <write_gpio>
  34:	00000793          	li	a5,0
  38:	00078513          	mv	a0,a5
  3c:	00c12083          	lw	ra,12(sp)
  40:	00812403          	lw	s0,8(sp)
  44:	01010113          	addi	sp,sp,16
  48:	00008067          	ret

0000004c <write_gpio>:
  4c:	fd010113          	addi	sp,sp,-48
  50:	02812623          	sw	s0,44(sp)
  54:	03010413          	addi	s0,sp,48
  58:	fca42e23          	sw	a0,-36(s0)
  5c:	fcb42c23          	sw	a1,-40(s0)
  60:	400c07b7          	lui	a5,0x400c0
  64:	01c78793          	addi	a5,a5,28 # 400c001c <__stack_top+0x300bf01c>
  68:	fef42623          	sw	a5,-20(s0)
  6c:	fec42783          	lw	a5,-20(s0)
  70:	00800713          	li	a4,8
  74:	00e7a023          	sw	a4,0(a5)
  78:	400c07b7          	lui	a5,0x400c0
  7c:	01078793          	addi	a5,a5,16 # 400c0010 <__stack_top+0x300bf010>
  80:	fef42423          	sw	a5,-24(s0)
  84:	fe842783          	lw	a5,-24(s0)
  88:	00800713          	li	a4,8
  8c:	00e7a023          	sw	a4,0(a5)
  90:	00000013          	nop
  94:	02c12403          	lw	s0,44(sp)
  98:	03010113          	addi	sp,sp,48
  9c:	00008067          	ret
